
CAN_LCD.elf:     file format elf32-avr

Sections:
Idx Name          Size      VMA       LMA       File off  Algn
  0 .data         00000002  00800100  000013be  00001452  2**0
                  CONTENTS, ALLOC, LOAD, DATA
  1 .text         000013be  00000000  00000000  00000094  2**1
                  CONTENTS, ALLOC, LOAD, READONLY, CODE
  2 .bss          0000047f  00800102  00800102  00001454  2**0
                  ALLOC
  3 .comment      00000030  00000000  00000000  00001454  2**0
                  CONTENTS, READONLY

Disassembly of section .text:

00000000 <__vectors>:
       0:	0c 94 b4 01 	jmp	0x368	; 0x368 <__ctors_end>
       4:	0c 94 0b 02 	jmp	0x416	; 0x416 <__vector_1>
       8:	0c 94 23 02 	jmp	0x446	; 0x446 <__vector_2>
       c:	0c 94 2d 02 	jmp	0x45a	; 0x45a <__vector_3>
      10:	0c 94 37 02 	jmp	0x46e	; 0x46e <__vector_4>
      14:	0c 94 d1 01 	jmp	0x3a2	; 0x3a2 <__bad_interrupt>
      18:	0c 94 d1 01 	jmp	0x3a2	; 0x3a2 <__bad_interrupt>
      1c:	0c 94 d1 01 	jmp	0x3a2	; 0x3a2 <__bad_interrupt>
      20:	0c 94 d1 01 	jmp	0x3a2	; 0x3a2 <__bad_interrupt>
      24:	0c 94 25 09 	jmp	0x124a	; 0x124a <__vector_9>
      28:	0c 94 d1 01 	jmp	0x3a2	; 0x3a2 <__bad_interrupt>
      2c:	0c 94 41 02 	jmp	0x482	; 0x482 <__vector_11>
      30:	0c 94 d1 01 	jmp	0x3a2	; 0x3a2 <__bad_interrupt>
      34:	0c 94 d1 01 	jmp	0x3a2	; 0x3a2 <__bad_interrupt>
      38:	0c 94 d1 01 	jmp	0x3a2	; 0x3a2 <__bad_interrupt>
      3c:	0c 94 3c 09 	jmp	0x1278	; 0x1278 <__vector_15>
      40:	0c 94 d1 01 	jmp	0x3a2	; 0x3a2 <__bad_interrupt>
      44:	0c 94 53 09 	jmp	0x12a6	; 0x12a6 <__vector_17>
      48:	0c 94 22 03 	jmp	0x644	; 0x644 <__vector_18>
      4c:	0c 94 d1 01 	jmp	0x3a2	; 0x3a2 <__bad_interrupt>
      50:	0c 94 54 07 	jmp	0xea8	; 0xea8 <__vector_20>
      54:	0c 94 d1 01 	jmp	0x3a2	; 0x3a2 <__bad_interrupt>
      58:	0c 94 d1 01 	jmp	0x3a2	; 0x3a2 <__bad_interrupt>
      5c:	0c 94 d1 01 	jmp	0x3a2	; 0x3a2 <__bad_interrupt>
      60:	0c 94 d1 01 	jmp	0x3a2	; 0x3a2 <__bad_interrupt>
      64:	0c 94 d3 01 	jmp	0x3a6	; 0x3a6 <__vector_25>
      68:	0c 94 d1 01 	jmp	0x3a2	; 0x3a2 <__bad_interrupt>
      6c:	0c 94 d1 01 	jmp	0x3a2	; 0x3a2 <__bad_interrupt>
      70:	0c 94 d1 01 	jmp	0x3a2	; 0x3a2 <__bad_interrupt>
      74:	0c 94 d1 01 	jmp	0x3a2	; 0x3a2 <__bad_interrupt>
      78:	0c 94 d1 01 	jmp	0x3a2	; 0x3a2 <__bad_interrupt>
      7c:	0c 94 d1 01 	jmp	0x3a2	; 0x3a2 <__bad_interrupt>
      80:	0c 94 d1 01 	jmp	0x3a2	; 0x3a2 <__bad_interrupt>
      84:	0c 94 d1 01 	jmp	0x3a2	; 0x3a2 <__bad_interrupt>
      88:	0c 94 d1 01 	jmp	0x3a2	; 0x3a2 <__bad_interrupt>
      8c:	0c 94 d1 01 	jmp	0x3a2	; 0x3a2 <__bad_interrupt>
      90:	0c 94 d1 01 	jmp	0x3a2	; 0x3a2 <__bad_interrupt>

00000094 <__trampolines_end>:
      94:	25 00       	.word	0x0025	; ????

00000096 <__c.1934>:
      96:	44 4d 43 43 3a 00                                   DMCC:.

0000009c <__c.1932>:
      9c:	73 74 43 00                                         stC.

000000a0 <__c.1930>:
      a0:	54 6d 61 78 3a 00                                   Tmax:.

000000a6 <__c.1928>:
      a6:	73 74 43 00                                         stC.

000000aa <__c.1926>:
      aa:	54 6d 69 6e 3a 00                                   Tmin:.

000000b0 <__c.1924>:
      b0:	6d 56 00                                            mV.

000000b3 <__c.1922>:
      b3:	56 61 76 72 67 3a 00                                Vavrg:.

000000ba <__c.1920>:
      ba:	6d 56 20 40 20 00                                   mV @ .

000000c0 <__c.1918>:
      c0:	56 6d 61 78 3a 00                                   Vmax:.

000000c6 <__c.1916>:
      c6:	6d 56 20 40 20 00                                   mV @ .

000000cc <__c.1914>:
      cc:	56 6d 69 6e 3a 00                                   Vmin:.

000000d2 <__c.1912>:
      d2:	25 00                                               %.

000000d4 <__c.1910>:
      d4:	53 4f 43 3a 00                                      SOC:.

000000d9 <__c.1908>:
      d9:	41 00                                               A.

000000db <__c.1906>:
      db:	43 75 72 72 65 6e 74 3a 00                          Current:.

000000e4 <__c.1904>:
      e4:	56 00                                               V.

000000e6 <__c.1902>:
      e6:	56 6f 6c 74 61 67 65 3a 00                          Voltage:.

000000ef <__c.1900>:
      ef:	49 6e 76 61 6c 69 64 00                             Invalid.

000000f7 <__c.1897>:
      f7:	50 61 72 61 6d 00                                   Param.

000000fd <__c.1894>:
      fd:	50 77 72 20 53 61 76 65 00                          Pwr Save.

00000106 <__c.1891>:
     106:	49 6e 76 20 49 6e 70 00                             Inv Inp.

0000010e <__c.1888>:
     10e:	4c 45 4d 20 41 6c 61 72 6d 00                       LEM Alarm.

00000118 <__c.1885>:
     118:	4f 76 65 72 20 54 65 6d 70 00                       Over Temp.

00000122 <__c.1882>:
     122:	4f 76 65 72 20 43 75 72 72 00                       Over Curr.

0000012c <__c.1879>:
     12c:	53 65 63 20 50 72 6f 74 00                          Sec Prot.

00000135 <__c.1876>:
     135:	45 72 72 6f 72 00                                   Error.

0000013b <__c.1873>:
     13b:	52 65 61 64 79 00                                   Ready.

00000141 <__c.1870>:
     141:	42 61 74 74 20 46 75 6c 6c 00                       Batt Full.

0000014b <__c.1867>:
     14b:	42 61 74 74 20 48 69 67 68 00                       Batt High.

00000155 <__c.1864>:
     155:	43 68 61 72 67 69 6e 67 00                          Charging.

0000015e <__c.1861>:
     15e:	42 61 74 74 20 45 6d 70 74 79 00                    Batt Empty.

00000169 <__c.1858>:
     169:	42 61 74 74 20 4c 6f 77 00                          Batt Low.

00000172 <__c.1855>:
     172:	44 69 73 63 68 61 72 67 65 00                       Discharge.

0000017c <__c.1851>:
     17c:	49 6e 69 74 00                                      Init.

00000181 <__c.1848>:
     181:	53 74 61 74 65 3a 00                                State:.

00000188 <font5x7>:
     188:	00 00 00 00 00 00 00 5f 00 00 00 07 00 07 00 14     ......._........
     198:	7f 14 7f 14 24 2a 7f 2a 12 23 13 08 64 62 36 49     ....$*.*.#..db6I
     1a8:	55 22 50 00 05 03 00 00 00 1c 22 41 00 00 41 22     U"P......."A..A"
     1b8:	1c 00 08 2a 1c 2a 08 08 08 3e 08 08 00 50 30 00     ...*.*...>...P0.
     1c8:	00 08 08 08 08 08 00 30 30 00 00 20 10 08 04 02     .......00.. ....
     1d8:	3e 51 49 45 3e 00 42 7f 40 00 42 61 51 49 46 21     >QIE>.B.@.BaQIF!
     1e8:	41 45 4b 31 18 14 12 7f 10 27 45 45 45 39 3c 4a     AEK1.....'EEE9<J
     1f8:	49 49 30 01 71 09 05 03 36 49 49 49 36 06 49 49     II0.q...6III6.II
     208:	29 1e 00 36 36 00 00 00 56 36 00 00 00 08 14 22     )..66...V6....."
     218:	41 14 14 14 14 14 41 22 14 08 00 02 01 51 09 06     A.....A".....Q..
     228:	32 49 79 41 3e 7e 11 11 11 7e 7f 49 49 49 36 3e     2IyA>~...~.III6>
     238:	41 41 41 22 7f 41 41 22 1c 7f 49 49 49 41 7f 09     AAA".AA"..IIIA..
     248:	09 01 01 3e 41 41 51 32 7f 08 08 08 7f 00 41 7f     ...>AAQ2......A.
     258:	41 00 20 40 41 3f 01 7f 08 14 22 41 7f 40 40 40     A. @A?...."A.@@@
     268:	40 7f 02 04 02 7f 7f 04 08 10 7f 3e 41 41 41 3e     @..........>AAA>
     278:	7f 09 09 09 06 3e 41 51 21 5e 7f 09 19 29 46 46     .....>AQ!^...)FF
     288:	49 49 49 31 01 01 7f 01 01 3f 40 40 40 3f 1f 20     III1.....?@@@?. 
     298:	40 20 1f 7f 20 18 20 7f 63 14 08 14 63 03 04 78     @ .. . .c...c..x
     2a8:	04 03 61 51 49 45 43 00 00 7f 41 41 02 04 08 10     ..aQIEC...AA....
     2b8:	20 41 41 7f 00 00 04 02 01 02 04 40 40 40 40 40      AA........@@@@@
     2c8:	00 01 02 04 00 20 54 54 54 78 7f 48 44 44 38 38     ..... TTTx.HDD88
     2d8:	44 44 44 20 38 44 44 48 7f 38 54 54 54 18 08 7e     DDD 8DDH.8TTT..~
     2e8:	09 01 02 08 14 54 54 3c 7f 08 04 04 78 00 44 7d     .....TT<....x.D}
     2f8:	40 00 20 40 44 3d 00 00 7f 10 28 44 00 41 7f 40     @. @D=....(D.A.@
     308:	00 7c 04 18 04 78 7c 08 04 04 78 38 44 44 44 38     .|...x|...x8DDD8
     318:	7c 14 14 14 08 08 14 14 18 7c 7c 08 04 04 08 48     |........||....H
     328:	54 54 54 20 04 3f 44 40 20 3c 40 40 20 7c 1c 20     TTT .?D@ <@@ |. 
     338:	40 20 1c 3c 40 30 40 3c 44 28 10 28 44 0c 50 50     @ .<@0@<D(.(D.PP
     348:	50 3c 44 64 54 4c 44 00 08 36 41 00 00 00 7f 00     P<DdTLD..6A.....
     358:	00 00 41 36 08 00 08 08 2a 1c 08 08 1c 2a 08 08     ..A6....*....*..

00000368 <__ctors_end>:
     368:	11 24       	eor	r1, r1
     36a:	1f be       	out	0x3f, r1	; 63
     36c:	cf ef       	ldi	r28, 0xFF	; 255
     36e:	d0 e1       	ldi	r29, 0x10	; 16
     370:	de bf       	out	0x3e, r29	; 62
     372:	cd bf       	out	0x3d, r28	; 61

00000374 <__do_copy_data>:
     374:	11 e0       	ldi	r17, 0x01	; 1
     376:	a0 e0       	ldi	r26, 0x00	; 0
     378:	b1 e0       	ldi	r27, 0x01	; 1
     37a:	ee eb       	ldi	r30, 0xBE	; 190
     37c:	f3 e1       	ldi	r31, 0x13	; 19
     37e:	02 c0       	rjmp	.+4      	; 0x384 <__do_copy_data+0x10>
     380:	05 90       	lpm	r0, Z+
     382:	0d 92       	st	X+, r0
     384:	a2 30       	cpi	r26, 0x02	; 2
     386:	b1 07       	cpc	r27, r17
     388:	d9 f7       	brne	.-10     	; 0x380 <__do_copy_data+0xc>

0000038a <__do_clear_bss>:
     38a:	25 e0       	ldi	r18, 0x05	; 5
     38c:	a2 e0       	ldi	r26, 0x02	; 2
     38e:	b1 e0       	ldi	r27, 0x01	; 1
     390:	01 c0       	rjmp	.+2      	; 0x394 <.do_clear_bss_start>

00000392 <.do_clear_bss_loop>:
     392:	1d 92       	st	X+, r1

00000394 <.do_clear_bss_start>:
     394:	a1 38       	cpi	r26, 0x81	; 129
     396:	b2 07       	cpc	r27, r18
     398:	e1 f7       	brne	.-8      	; 0x392 <.do_clear_bss_loop>
     39a:	0e 94 36 04 	call	0x86c	; 0x86c <main>
     39e:	0c 94 dd 09 	jmp	0x13ba	; 0x13ba <_exit>

000003a2 <__bad_interrupt>:
     3a2:	0c 94 00 00 	jmp	0	; 0x0 <__vectors>

000003a6 <__vector_25>:
     3a6:	1f 92       	push	r1
     3a8:	0f 92       	push	r0
     3aa:	0f b6       	in	r0, 0x3f	; 63
     3ac:	0f 92       	push	r0
     3ae:	11 24       	eor	r1, r1
     3b0:	8f 93       	push	r24
     3b2:	80 91 03 01 	lds	r24, 0x0103
     3b6:	88 23       	and	r24, r24
     3b8:	31 f0       	breq	.+12     	; 0x3c6 <__vector_25+0x20>
     3ba:	81 e0       	ldi	r24, 0x01	; 1
     3bc:	80 93 02 01 	sts	0x0102, r24
     3c0:	10 92 03 01 	sts	0x0103, r1
     3c4:	05 c0       	rjmp	.+10     	; 0x3d0 <__vector_25+0x2a>
     3c6:	80 91 03 01 	lds	r24, 0x0103
     3ca:	8f 5f       	subi	r24, 0xFF	; 255
     3cc:	80 93 03 01 	sts	0x0103, r24
     3d0:	8f 91       	pop	r24
     3d2:	0f 90       	pop	r0
     3d4:	0f be       	out	0x3f, r0	; 63
     3d6:	0f 90       	pop	r0
     3d8:	1f 90       	pop	r1
     3da:	18 95       	reti

000003dc <Buttons_Init>:
     3dc:	50 98       	cbi	0x0a, 0	; 10
     3de:	51 98       	cbi	0x0a, 1	; 10
     3e0:	52 98       	cbi	0x0a, 2	; 10
     3e2:	53 98       	cbi	0x0a, 3	; 10
     3e4:	54 98       	cbi	0x0a, 4	; 10
     3e6:	58 9a       	sbi	0x0b, 0	; 11
     3e8:	59 9a       	sbi	0x0b, 1	; 11
     3ea:	5a 9a       	sbi	0x0b, 2	; 11
     3ec:	5b 9a       	sbi	0x0b, 3	; 11
     3ee:	5c 9a       	sbi	0x0b, 4	; 11
     3f0:	e9 e6       	ldi	r30, 0x69	; 105
     3f2:	f0 e0       	ldi	r31, 0x00	; 0
     3f4:	80 81       	ld	r24, Z
     3f6:	8a 6a       	ori	r24, 0xAA	; 170
     3f8:	80 83       	st	Z, r24
     3fa:	8d b3       	in	r24, 0x1d	; 29
     3fc:	8f 60       	ori	r24, 0x0F	; 15
     3fe:	8d bb       	out	0x1d, r24	; 29
     400:	ef e6       	ldi	r30, 0x6F	; 111
     402:	f0 e0       	ldi	r31, 0x00	; 0
     404:	80 81       	ld	r24, Z
     406:	80 62       	ori	r24, 0x20	; 32
     408:	80 83       	st	Z, r24
     40a:	10 92 36 05 	sts	0x0536, r1
     40e:	08 95       	ret

00000410 <Buttons_get_screen_line>:
     410:	80 91 04 01 	lds	r24, 0x0104
     414:	08 95       	ret

00000416 <__vector_1>:
     416:	1f 92       	push	r1
     418:	0f 92       	push	r0
     41a:	0f b6       	in	r0, 0x3f	; 63
     41c:	0f 92       	push	r0
     41e:	11 24       	eor	r1, r1
     420:	8f 93       	push	r24
     422:	80 91 04 01 	lds	r24, 0x0104
     426:	83 31       	cpi	r24, 0x13	; 19
     428:	30 f4       	brcc	.+12     	; 0x436 <__vector_1+0x20>
     42a:	80 91 04 01 	lds	r24, 0x0104
     42e:	8f 5f       	subi	r24, 0xFF	; 255
     430:	80 93 04 01 	sts	0x0104, r24
     434:	02 c0       	rjmp	.+4      	; 0x43a <__vector_1+0x24>
     436:	10 92 04 01 	sts	0x0104, r1
     43a:	8f 91       	pop	r24
     43c:	0f 90       	pop	r0
     43e:	0f be       	out	0x3f, r0	; 63
     440:	0f 90       	pop	r0
     442:	1f 90       	pop	r1
     444:	18 95       	reti

00000446 <__vector_2>:
     446:	1f 92       	push	r1
     448:	0f 92       	push	r0
     44a:	0f b6       	in	r0, 0x3f	; 63
     44c:	0f 92       	push	r0
     44e:	11 24       	eor	r1, r1
     450:	0f 90       	pop	r0
     452:	0f be       	out	0x3f, r0	; 63
     454:	0f 90       	pop	r0
     456:	1f 90       	pop	r1
     458:	18 95       	reti

0000045a <__vector_3>:
     45a:	1f 92       	push	r1
     45c:	0f 92       	push	r0
     45e:	0f b6       	in	r0, 0x3f	; 63
     460:	0f 92       	push	r0
     462:	11 24       	eor	r1, r1
     464:	0f 90       	pop	r0
     466:	0f be       	out	0x3f, r0	; 63
     468:	0f 90       	pop	r0
     46a:	1f 90       	pop	r1
     46c:	18 95       	reti

0000046e <__vector_4>:
     46e:	1f 92       	push	r1
     470:	0f 92       	push	r0
     472:	0f b6       	in	r0, 0x3f	; 63
     474:	0f 92       	push	r0
     476:	11 24       	eor	r1, r1
     478:	0f 90       	pop	r0
     47a:	0f be       	out	0x3f, r0	; 63
     47c:	0f 90       	pop	r0
     47e:	1f 90       	pop	r1
     480:	18 95       	reti

00000482 <__vector_11>:
     482:	1f 92       	push	r1
     484:	0f 92       	push	r0
     486:	0f b6       	in	r0, 0x3f	; 63
     488:	0f 92       	push	r0
     48a:	11 24       	eor	r1, r1
     48c:	8f 93       	push	r24
     48e:	80 91 04 01 	lds	r24, 0x0104
     492:	88 23       	and	r24, r24
     494:	21 f0       	breq	.+8      	; 0x49e <__vector_11+0x1c>
     496:	80 91 04 01 	lds	r24, 0x0104
     49a:	81 50       	subi	r24, 0x01	; 1
     49c:	01 c0       	rjmp	.+2      	; 0x4a0 <__vector_11+0x1e>
     49e:	83 e1       	ldi	r24, 0x13	; 19
     4a0:	80 93 04 01 	sts	0x0104, r24
     4a4:	8f 91       	pop	r24
     4a6:	0f 90       	pop	r0
     4a8:	0f be       	out	0x3f, r0	; 63
     4aa:	0f 90       	pop	r0
     4ac:	1f 90       	pop	r1
     4ae:	18 95       	reti

000004b0 <CAN_Init>:
     4b0:	81 e0       	ldi	r24, 0x01	; 1
     4b2:	80 93 d8 00 	sts	0x00D8, r24
     4b6:	10 92 e5 00 	sts	0x00E5, r1
     4ba:	80 91 e2 00 	lds	r24, 0x00E2
     4be:	8a 60       	ori	r24, 0x0A	; 10
     4c0:	80 93 e2 00 	sts	0x00E2, r24
     4c4:	80 91 e3 00 	lds	r24, 0x00E3
     4c8:	8c 60       	ori	r24, 0x0C	; 12
     4ca:	80 93 e3 00 	sts	0x00E3, r24
     4ce:	80 91 e4 00 	lds	r24, 0x00E4
     4d2:	87 63       	ori	r24, 0x37	; 55
     4d4:	80 93 e4 00 	sts	0x00E4, r24
     4d8:	80 e0       	ldi	r24, 0x00	; 0
     4da:	98 2f       	mov	r25, r24
     4dc:	92 95       	swap	r25
     4de:	90 7f       	andi	r25, 0xF0	; 240
     4e0:	90 93 ed 00 	sts	0x00ED, r25
     4e4:	10 92 ef 00 	sts	0x00EF, r1
     4e8:	10 92 ee 00 	sts	0x00EE, r1
     4ec:	8f 5f       	subi	r24, 0xFF	; 255
     4ee:	8e 30       	cpi	r24, 0x0E	; 14
     4f0:	a1 f7       	brne	.-24     	; 0x4da <CAN_Init+0x2a>
     4f2:	80 91 db 00 	lds	r24, 0x00DB
     4f6:	80 6a       	ori	r24, 0xA0	; 160
     4f8:	80 93 db 00 	sts	0x00DB, r24
     4fc:	10 92 ed 00 	sts	0x00ED, r1
     500:	10 92 f4 00 	sts	0x00F4, r1
     504:	10 92 f5 00 	sts	0x00F5, r1
     508:	90 ee       	ldi	r25, 0xE0	; 224
     50a:	90 93 f6 00 	sts	0x00F6, r25
     50e:	8f ef       	ldi	r24, 0xFF	; 255
     510:	80 93 f7 00 	sts	0x00F7, r24
     514:	10 92 ef 00 	sts	0x00EF, r1
     518:	10 92 f0 00 	sts	0x00F0, r1
     51c:	10 92 f1 00 	sts	0x00F1, r1
     520:	10 92 f2 00 	sts	0x00F2, r1
     524:	30 e1       	ldi	r19, 0x10	; 16
     526:	30 93 f3 00 	sts	0x00F3, r19
     52a:	20 91 de 00 	lds	r18, 0x00DE
     52e:	21 60       	ori	r18, 0x01	; 1
     530:	20 93 de 00 	sts	0x00DE, r18
     534:	30 93 ed 00 	sts	0x00ED, r19
     538:	10 92 f4 00 	sts	0x00F4, r1
     53c:	10 92 f5 00 	sts	0x00F5, r1
     540:	80 93 f6 00 	sts	0x00F6, r24
     544:	80 93 f7 00 	sts	0x00F7, r24
     548:	10 92 ef 00 	sts	0x00EF, r1
     54c:	20 91 ef 00 	lds	r18, 0x00EF
     550:	28 68       	ori	r18, 0x88	; 136
     552:	20 93 ef 00 	sts	0x00EF, r18
     556:	10 92 f0 00 	sts	0x00F0, r1
     55a:	10 92 f1 00 	sts	0x00F1, r1
     55e:	30 ec       	ldi	r19, 0xC0	; 192
     560:	30 93 f2 00 	sts	0x00F2, r19
     564:	20 e3       	ldi	r18, 0x30	; 48
     566:	20 93 f3 00 	sts	0x00F3, r18
     56a:	40 91 de 00 	lds	r20, 0x00DE
     56e:	42 60       	ori	r20, 0x02	; 2
     570:	40 93 de 00 	sts	0x00DE, r20
     574:	40 e2       	ldi	r20, 0x20	; 32
     576:	40 93 ed 00 	sts	0x00ED, r20
     57a:	10 92 f4 00 	sts	0x00F4, r1
     57e:	10 92 f5 00 	sts	0x00F5, r1
     582:	90 93 f6 00 	sts	0x00F6, r25
     586:	80 93 f7 00 	sts	0x00F7, r24
     58a:	10 92 ef 00 	sts	0x00EF, r1
     58e:	40 91 ef 00 	lds	r20, 0x00EF
     592:	48 68       	ori	r20, 0x88	; 136
     594:	40 93 ef 00 	sts	0x00EF, r20
     598:	10 92 f0 00 	sts	0x00F0, r1
     59c:	10 92 f1 00 	sts	0x00F1, r1
     5a0:	30 93 f2 00 	sts	0x00F2, r19
     5a4:	50 e4       	ldi	r21, 0x40	; 64
     5a6:	50 93 f3 00 	sts	0x00F3, r21
     5aa:	40 91 de 00 	lds	r20, 0x00DE
     5ae:	44 60       	ori	r20, 0x04	; 4
     5b0:	40 93 de 00 	sts	0x00DE, r20
     5b4:	20 93 ed 00 	sts	0x00ED, r18
     5b8:	10 92 f4 00 	sts	0x00F4, r1
     5bc:	10 92 f5 00 	sts	0x00F5, r1
     5c0:	90 93 f6 00 	sts	0x00F6, r25
     5c4:	80 93 f7 00 	sts	0x00F7, r24
     5c8:	40 91 ef 00 	lds	r20, 0x00EF
     5cc:	48 68       	ori	r20, 0x88	; 136
     5ce:	40 93 ef 00 	sts	0x00EF, r20
     5d2:	10 92 f0 00 	sts	0x00F0, r1
     5d6:	10 92 f1 00 	sts	0x00F1, r1
     5da:	30 93 f2 00 	sts	0x00F2, r19
     5de:	30 e5       	ldi	r19, 0x50	; 80
     5e0:	30 93 f3 00 	sts	0x00F3, r19
     5e4:	50 93 ed 00 	sts	0x00ED, r21
     5e8:	10 92 f4 00 	sts	0x00F4, r1
     5ec:	10 92 f5 00 	sts	0x00F5, r1
     5f0:	90 93 f6 00 	sts	0x00F6, r25
     5f4:	80 93 f7 00 	sts	0x00F7, r24
     5f8:	10 92 ef 00 	sts	0x00EF, r1
     5fc:	10 92 f0 00 	sts	0x00F0, r1
     600:	10 92 f1 00 	sts	0x00F1, r1
     604:	90 93 f2 00 	sts	0x00F2, r25
     608:	20 93 f3 00 	sts	0x00F3, r18
     60c:	30 93 ed 00 	sts	0x00ED, r19
     610:	10 92 f4 00 	sts	0x00F4, r1
     614:	10 92 f5 00 	sts	0x00F5, r1
     618:	90 93 f6 00 	sts	0x00F6, r25
     61c:	80 93 f7 00 	sts	0x00F7, r24
     620:	10 92 ef 00 	sts	0x00EF, r1
     624:	10 92 f0 00 	sts	0x00F0, r1
     628:	10 92 f1 00 	sts	0x00F1, r1
     62c:	10 92 f2 00 	sts	0x00F2, r1
     630:	10 92 f3 00 	sts	0x00F3, r1
     634:	10 92 09 01 	sts	0x0109, r1
     638:	80 91 d8 00 	lds	r24, 0x00D8
     63c:	82 60       	ori	r24, 0x02	; 2
     63e:	80 93 d8 00 	sts	0x00D8, r24
     642:	08 95       	ret

00000644 <__vector_18>:
     644:	1f 92       	push	r1
     646:	0f 92       	push	r0
     648:	0f b6       	in	r0, 0x3f	; 63
     64a:	0f 92       	push	r0
     64c:	11 24       	eor	r1, r1
     64e:	8f 93       	push	r24
     650:	81 e0       	ldi	r24, 0x01	; 1
     652:	80 93 09 01 	sts	0x0109, r24
     656:	8f 91       	pop	r24
     658:	0f 90       	pop	r0
     65a:	0f be       	out	0x3f, r0	; 63
     65c:	0f 90       	pop	r0
     65e:	1f 90       	pop	r1
     660:	18 95       	reti

00000662 <CAN_Task>:
     662:	80 91 07 01 	lds	r24, 0x0107
     666:	90 91 08 01 	lds	r25, 0x0108
     66a:	0e 94 04 09 	call	0x1208	; 0x1208 <timer_time_elapsed>
     66e:	85 34       	cpi	r24, 0x45	; 69
     670:	92 40       	sbci	r25, 0x02	; 2
     672:	80 f0       	brcs	.+32     	; 0x694 <CAN_Task+0x32>
     674:	0e 94 ff 08 	call	0x11fe	; 0x11fe <timer_get>
     678:	90 93 08 01 	sts	0x0108, r25
     67c:	80 93 07 01 	sts	0x0107, r24
     680:	10 92 ed 00 	sts	0x00ED, r1
     684:	10 92 ee 00 	sts	0x00EE, r1
     688:	80 e4       	ldi	r24, 0x40	; 64
     68a:	80 93 ef 00 	sts	0x00EF, r24
     68e:	81 e0       	ldi	r24, 0x01	; 1
     690:	80 93 06 01 	sts	0x0106, r24
     694:	80 91 09 01 	lds	r24, 0x0109
     698:	88 23       	and	r24, r24
     69a:	09 f4       	brne	.+2      	; 0x69e <CAN_Task+0x3c>
     69c:	66 c0       	rjmp	.+204    	; 0x76a <CAN_Task+0x108>
     69e:	10 92 09 01 	sts	0x0109, r1
     6a2:	80 91 ec 00 	lds	r24, 0x00EC
     6a6:	80 7f       	andi	r24, 0xF0	; 240
     6a8:	80 93 ed 00 	sts	0x00ED, r24
     6ac:	80 91 ed 00 	lds	r24, 0x00ED
     6b0:	82 95       	swap	r24
     6b2:	8f 70       	andi	r24, 0x0F	; 15
     6b4:	81 30       	cpi	r24, 0x01	; 1
     6b6:	89 f4       	brne	.+34     	; 0x6da <CAN_Task+0x78>
     6b8:	80 91 ee 00 	lds	r24, 0x00EE
     6bc:	85 ff       	sbrs	r24, 5
     6be:	2e c0       	rjmp	.+92     	; 0x71c <CAN_Task+0xba>
     6c0:	80 e0       	ldi	r24, 0x00	; 0
     6c2:	90 e0       	ldi	r25, 0x00	; 0
     6c4:	20 91 fa 00 	lds	r18, 0x00FA
     6c8:	fc 01       	movw	r30, r24
     6ca:	e3 5a       	subi	r30, 0xA3	; 163
     6cc:	fa 4f       	sbci	r31, 0xFA	; 250
     6ce:	20 83       	st	Z, r18
     6d0:	01 96       	adiw	r24, 0x01	; 1
     6d2:	88 30       	cpi	r24, 0x08	; 8
     6d4:	91 05       	cpc	r25, r1
     6d6:	b1 f7       	brne	.-20     	; 0x6c4 <CAN_Task+0x62>
     6d8:	21 c0       	rjmp	.+66     	; 0x71c <CAN_Task+0xba>
     6da:	80 91 ed 00 	lds	r24, 0x00ED
     6de:	82 95       	swap	r24
     6e0:	8f 70       	andi	r24, 0x0F	; 15
     6e2:	82 30       	cpi	r24, 0x02	; 2
     6e4:	89 f4       	brne	.+34     	; 0x708 <CAN_Task+0xa6>
     6e6:	80 91 ee 00 	lds	r24, 0x00EE
     6ea:	85 ff       	sbrs	r24, 5
     6ec:	17 c0       	rjmp	.+46     	; 0x71c <CAN_Task+0xba>
     6ee:	80 e0       	ldi	r24, 0x00	; 0
     6f0:	90 e0       	ldi	r25, 0x00	; 0
     6f2:	20 91 fa 00 	lds	r18, 0x00FA
     6f6:	fc 01       	movw	r30, r24
     6f8:	e3 5a       	subi	r30, 0xA3	; 163
     6fa:	fa 4f       	sbci	r31, 0xFA	; 250
     6fc:	20 87       	std	Z+8, r18	; 0x08
     6fe:	01 96       	adiw	r24, 0x01	; 1
     700:	88 30       	cpi	r24, 0x08	; 8
     702:	91 05       	cpc	r25, r1
     704:	b1 f7       	brne	.-20     	; 0x6f2 <CAN_Task+0x90>
     706:	0a c0       	rjmp	.+20     	; 0x71c <CAN_Task+0xba>
     708:	80 91 ed 00 	lds	r24, 0x00ED
     70c:	82 95       	swap	r24
     70e:	8f 70       	andi	r24, 0x0F	; 15
     710:	83 30       	cpi	r24, 0x03	; 3
     712:	d9 f4       	brne	.+54     	; 0x74a <CAN_Task+0xe8>
     714:	80 91 ee 00 	lds	r24, 0x00EE
     718:	85 fd       	sbrc	r24, 5
     71a:	0a c0       	rjmp	.+20     	; 0x730 <CAN_Task+0xce>
     71c:	10 92 ee 00 	sts	0x00EE, r1
     720:	10 92 ef 00 	sts	0x00EF, r1
     724:	80 91 ef 00 	lds	r24, 0x00EF
     728:	88 68       	ori	r24, 0x88	; 136
     72a:	80 93 ef 00 	sts	0x00EF, r24
     72e:	08 95       	ret
     730:	80 e0       	ldi	r24, 0x00	; 0
     732:	90 e0       	ldi	r25, 0x00	; 0
     734:	20 91 fa 00 	lds	r18, 0x00FA
     738:	fc 01       	movw	r30, r24
     73a:	e3 5a       	subi	r30, 0xA3	; 163
     73c:	fa 4f       	sbci	r31, 0xFA	; 250
     73e:	20 8b       	std	Z+16, r18	; 0x10
     740:	01 96       	adiw	r24, 0x01	; 1
     742:	88 30       	cpi	r24, 0x08	; 8
     744:	91 05       	cpc	r25, r1
     746:	b1 f7       	brne	.-20     	; 0x734 <CAN_Task+0xd2>
     748:	e9 cf       	rjmp	.-46     	; 0x71c <CAN_Task+0xba>
     74a:	80 91 ed 00 	lds	r24, 0x00ED
     74e:	82 95       	swap	r24
     750:	8f 70       	andi	r24, 0x0F	; 15
     752:	84 30       	cpi	r24, 0x04	; 4
     754:	39 f0       	breq	.+14     	; 0x764 <CAN_Task+0x102>
     756:	80 91 ed 00 	lds	r24, 0x00ED
     75a:	82 95       	swap	r24
     75c:	8f 70       	andi	r24, 0x0F	; 15
     75e:	85 30       	cpi	r24, 0x05	; 5
     760:	09 f0       	breq	.+2      	; 0x764 <CAN_Task+0x102>
     762:	83 c0       	rjmp	.+262    	; 0x86a <CAN_Task+0x208>
     764:	10 92 ee 00 	sts	0x00EE, r1
     768:	08 95       	ret
     76a:	80 91 06 01 	lds	r24, 0x0106
     76e:	88 23       	and	r24, r24
     770:	09 f4       	brne	.+2      	; 0x774 <CAN_Task+0x112>
     772:	7b c0       	rjmp	.+246    	; 0x86a <CAN_Task+0x208>
     774:	80 91 05 01 	lds	r24, 0x0105
     778:	81 11       	cpse	r24, r1
     77a:	28 c0       	rjmp	.+80     	; 0x7cc <CAN_Task+0x16a>
     77c:	20 91 5e 05 	lds	r18, 0x055E
     780:	80 91 5d 05 	lds	r24, 0x055D
     784:	90 e0       	ldi	r25, 0x00	; 0
     786:	92 2b       	or	r25, r18
     788:	90 93 3a 05 	sts	0x053A, r25
     78c:	80 93 39 05 	sts	0x0539, r24
     790:	20 91 60 05 	lds	r18, 0x0560
     794:	80 91 5f 05 	lds	r24, 0x055F
     798:	90 e0       	ldi	r25, 0x00	; 0
     79a:	92 2b       	or	r25, r18
     79c:	90 93 38 05 	sts	0x0538, r25
     7a0:	80 93 37 05 	sts	0x0537, r24
     7a4:	80 91 61 05 	lds	r24, 0x0561
     7a8:	80 93 3b 05 	sts	0x053B, r24
     7ac:	20 91 63 05 	lds	r18, 0x0563
     7b0:	80 91 62 05 	lds	r24, 0x0562
     7b4:	90 e0       	ldi	r25, 0x00	; 0
     7b6:	92 2b       	or	r25, r18
     7b8:	90 93 3d 05 	sts	0x053D, r25
     7bc:	80 93 3c 05 	sts	0x053C, r24
     7c0:	80 91 64 05 	lds	r24, 0x0564
     7c4:	80 93 3e 05 	sts	0x053E, r24
     7c8:	81 e0       	ldi	r24, 0x01	; 1
     7ca:	41 c0       	rjmp	.+130    	; 0x84e <CAN_Task+0x1ec>
     7cc:	81 30       	cpi	r24, 0x01	; 1
     7ce:	41 f5       	brne	.+80     	; 0x820 <CAN_Task+0x1be>
     7d0:	20 91 66 05 	lds	r18, 0x0566
     7d4:	80 91 65 05 	lds	r24, 0x0565
     7d8:	90 e0       	ldi	r25, 0x00	; 0
     7da:	92 2b       	or	r25, r18
     7dc:	90 93 40 05 	sts	0x0540, r25
     7e0:	80 93 3f 05 	sts	0x053F, r24
     7e4:	80 91 67 05 	lds	r24, 0x0567
     7e8:	80 93 41 05 	sts	0x0541, r24
     7ec:	20 91 69 05 	lds	r18, 0x0569
     7f0:	80 91 68 05 	lds	r24, 0x0568
     7f4:	90 e0       	ldi	r25, 0x00	; 0
     7f6:	92 2b       	or	r25, r18
     7f8:	90 93 43 05 	sts	0x0543, r25
     7fc:	80 93 42 05 	sts	0x0542, r24
     800:	80 91 6a 05 	lds	r24, 0x056A
     804:	80 93 44 05 	sts	0x0544, r24
     808:	20 91 6c 05 	lds	r18, 0x056C
     80c:	80 91 6b 05 	lds	r24, 0x056B
     810:	90 e0       	ldi	r25, 0x00	; 0
     812:	92 2b       	or	r25, r18
     814:	90 93 46 05 	sts	0x0546, r25
     818:	80 93 45 05 	sts	0x0545, r24
     81c:	82 e0       	ldi	r24, 0x02	; 2
     81e:	17 c0       	rjmp	.+46     	; 0x84e <CAN_Task+0x1ec>
     820:	82 30       	cpi	r24, 0x02	; 2
     822:	c1 f4       	brne	.+48     	; 0x854 <CAN_Task+0x1f2>
     824:	80 91 6d 05 	lds	r24, 0x056D
     828:	80 93 47 05 	sts	0x0547, r24
     82c:	80 91 6e 05 	lds	r24, 0x056E
     830:	80 93 48 05 	sts	0x0548, r24
     834:	80 91 6f 05 	lds	r24, 0x056F
     838:	80 93 49 05 	sts	0x0549, r24
     83c:	80 91 70 05 	lds	r24, 0x0570
     840:	80 93 4a 05 	sts	0x054A, r24
     844:	80 91 74 05 	lds	r24, 0x0574
     848:	80 93 4b 05 	sts	0x054B, r24
     84c:	83 e0       	ldi	r24, 0x03	; 3
     84e:	80 93 05 01 	sts	0x0105, r24
     852:	08 95       	ret
     854:	83 30       	cpi	r24, 0x03	; 3
     856:	49 f4       	brne	.+18     	; 0x86a <CAN_Task+0x208>
     858:	81 e0       	ldi	r24, 0x01	; 1
     85a:	80 93 75 05 	sts	0x0575, r24
     85e:	80 93 76 05 	sts	0x0576, r24
     862:	10 92 06 01 	sts	0x0106, r1
     866:	10 92 05 01 	sts	0x0105, r1
     86a:	08 95       	ret

0000086c <main>:
     86c:	85 b7       	in	r24, 0x35	; 53
     86e:	80 68       	ori	r24, 0x80	; 128
     870:	85 bf       	out	0x35, r24	; 53
     872:	85 b7       	in	r24, 0x35	; 53
     874:	80 68       	ori	r24, 0x80	; 128
     876:	85 bf       	out	0x35, r24	; 53
     878:	84 9a       	sbi	0x10, 4	; 16
     87a:	27 9a       	sbi	0x04, 7	; 4
     87c:	2f 98       	cbi	0x05, 7	; 5
     87e:	78 94       	sei
     880:	0e 94 ee 01 	call	0x3dc	; 0x3dc <Buttons_Init>
     884:	0e 94 68 04 	call	0x8d0	; 0x8d0 <Display_Init>
     888:	0e 94 58 02 	call	0x4b0	; 0x4b0 <CAN_Init>
     88c:	0e 94 f6 08 	call	0x11ec	; 0x11ec <Timer0_Init>
     890:	8c 98       	cbi	0x11, 4	; 17
     892:	0e 94 ff 08 	call	0x11fe	; 0x11fe <timer_get>
     896:	ec 01       	movw	r28, r24
     898:	11 e0       	ldi	r17, 0x01	; 1
     89a:	0e 94 11 09 	call	0x1222	; 0x1222 <timer_new_tick>
     89e:	88 23       	and	r24, r24
     8a0:	e1 f3       	breq	.-8      	; 0x89a <main+0x2e>
     8a2:	80 91 0a 01 	lds	r24, 0x010A
     8a6:	81 11       	cpse	r24, r1
     8a8:	03 c0       	rjmp	.+6      	; 0x8b0 <main+0x44>
     8aa:	10 93 0a 01 	sts	0x010A, r17
     8ae:	02 c0       	rjmp	.+4      	; 0x8b4 <main+0x48>
     8b0:	10 92 0a 01 	sts	0x010A, r1
     8b4:	0e 94 31 03 	call	0x662	; 0x662 <CAN_Task>
     8b8:	ce 01       	movw	r24, r28
     8ba:	0e 94 04 09 	call	0x1208	; 0x1208 <timer_time_elapsed>
     8be:	89 3c       	cpi	r24, 0xC9	; 201
     8c0:	91 05       	cpc	r25, r1
     8c2:	58 f3       	brcs	.-42     	; 0x89a <main+0x2e>
     8c4:	0e 94 8b 04 	call	0x916	; 0x916 <Display_Task>
     8c8:	0e 94 ff 08 	call	0x11fe	; 0x11fe <timer_get>
     8cc:	ec 01       	movw	r28, r24
     8ce:	e5 cf       	rjmp	.-54     	; 0x89a <main+0x2e>

000008d0 <Display_Init>:
     8d0:	98 9a       	sbi	0x13, 0	; 19
     8d2:	a0 98       	cbi	0x14, 0	; 20
     8d4:	87 e9       	ldi	r24, 0x97	; 151
     8d6:	9a e3       	ldi	r25, 0x3A	; 58
     8d8:	01 97       	sbiw	r24, 0x01	; 1
     8da:	f1 f7       	brne	.-4      	; 0x8d8 <Display_Init+0x8>
     8dc:	00 c0       	rjmp	.+0      	; 0x8de <Display_Init+0xe>
     8de:	00 00       	nop
     8e0:	a0 9a       	sbi	0x14, 0	; 20
     8e2:	0e 94 5f 07 	call	0xebe	; 0xebe <GLCD_Initialize>
     8e6:	87 e9       	ldi	r24, 0x97	; 151
     8e8:	9a e3       	ldi	r25, 0x3A	; 58
     8ea:	01 97       	sbiw	r24, 0x01	; 1
     8ec:	f1 f7       	brne	.-4      	; 0x8ea <Display_Init+0x1a>
     8ee:	00 c0       	rjmp	.+0      	; 0x8f0 <Display_Init+0x20>
     8f0:	00 00       	nop
     8f2:	0e 94 c4 07 	call	0xf88	; 0xf88 <GLCD_ClearScreen>
     8f6:	60 e0       	ldi	r22, 0x00	; 0
     8f8:	80 e0       	ldi	r24, 0x00	; 0
     8fa:	0e 94 a6 07 	call	0xf4c	; 0xf4c <GLCD_GoTo>
     8fe:	23 e3       	ldi	r18, 0x33	; 51
     900:	4e e1       	ldi	r20, 0x1E	; 30
     902:	6c e0       	ldi	r22, 0x0C	; 12
     904:	86 e6       	ldi	r24, 0x66	; 102
     906:	0e 94 54 06 	call	0xca8	; 0xca8 <GLCD_Rectangle>
     90a:	23 e0       	ldi	r18, 0x03	; 3
     90c:	4c e0       	ldi	r20, 0x0C	; 12
     90e:	69 e0       	ldi	r22, 0x09	; 9
     910:	8f e6       	ldi	r24, 0x6F	; 111
     912:	0c 94 96 06 	jmp	0xd2c	; 0xd2c <GLCD_Rectangle_Full>

00000916 <Display_Task>:
     916:	cf 93       	push	r28
     918:	df 93       	push	r29
     91a:	0e 94 08 02 	call	0x410	; 0x410 <Buttons_get_screen_line>
     91e:	80 93 11 01 	sts	0x0111, r24
     922:	80 91 10 01 	lds	r24, 0x0110
     926:	8f 5f       	subi	r24, 0xFF	; 255
     928:	88 30       	cpi	r24, 0x08	; 8
     92a:	18 f4       	brcc	.+6      	; 0x932 <Display_Task+0x1c>
     92c:	80 93 10 01 	sts	0x0110, r24
     930:	02 c0       	rjmp	.+4      	; 0x936 <Display_Task+0x20>
     932:	10 92 10 01 	sts	0x0110, r1
     936:	60 91 10 01 	lds	r22, 0x0110
     93a:	80 e0       	ldi	r24, 0x00	; 0
     93c:	0e 94 a6 07 	call	0xf4c	; 0xf4c <GLCD_GoTo>
     940:	90 91 11 01 	lds	r25, 0x0111
     944:	80 91 0f 01 	lds	r24, 0x010F
     948:	98 17       	cp	r25, r24
     94a:	81 f0       	breq	.+32     	; 0x96c <Display_Task+0x56>
     94c:	80 e1       	ldi	r24, 0x10	; 16
     94e:	0e 94 d4 08 	call	0x11a8	; 0x11a8 <GLCD_clear>
     952:	80 91 0e 01 	lds	r24, 0x010E
     956:	8f 5f       	subi	r24, 0xFF	; 255
     958:	80 93 0e 01 	sts	0x010E, r24
     95c:	88 30       	cpi	r24, 0x08	; 8
     95e:	30 f0       	brcs	.+12     	; 0x96c <Display_Task+0x56>
     960:	80 91 11 01 	lds	r24, 0x0111
     964:	80 93 0f 01 	sts	0x010F, r24
     968:	10 92 0e 01 	sts	0x010E, r1
     96c:	20 91 10 01 	lds	r18, 0x0110
     970:	30 e0       	ldi	r19, 0x00	; 0
     972:	c0 91 11 01 	lds	r28, 0x0111
     976:	d0 e0       	ldi	r29, 0x00	; 0
     978:	ea e0       	ldi	r30, 0x0A	; 10
     97a:	f0 e0       	ldi	r31, 0x00	; 0
     97c:	ce 01       	movw	r24, r28
     97e:	bf 01       	movw	r22, r30
     980:	0e 94 7e 09 	call	0x12fc	; 0x12fc <__divmodhi4>
     984:	28 17       	cp	r18, r24
     986:	39 07       	cpc	r19, r25
     988:	09 f0       	breq	.+2      	; 0x98c <Display_Task+0x76>
     98a:	61 c0       	rjmp	.+194    	; 0xa4e <Display_Task+0x138>
     98c:	81 e8       	ldi	r24, 0x81	; 129
     98e:	91 e0       	ldi	r25, 0x01	; 1
     990:	0e 94 f8 07 	call	0xff0	; 0xff0 <GLCD_WriteString_progmem>
     994:	8a e0       	ldi	r24, 0x0A	; 10
     996:	0e 94 d4 08 	call	0x11a8	; 0x11a8 <GLCD_clear>
     99a:	80 91 3e 05 	lds	r24, 0x053E
     99e:	8f 30       	cpi	r24, 0x0F	; 15
     9a0:	09 f4       	brne	.+2      	; 0x9a4 <Display_Task+0x8e>
     9a2:	40 c0       	rjmp	.+128    	; 0xa24 <Display_Task+0x10e>
     9a4:	a8 f4       	brcc	.+42     	; 0x9d0 <Display_Task+0xba>
     9a6:	84 30       	cpi	r24, 0x04	; 4
     9a8:	a1 f1       	breq	.+104    	; 0xa12 <Display_Task+0xfc>
     9aa:	48 f4       	brcc	.+18     	; 0x9be <Display_Task+0xa8>
     9ac:	82 30       	cpi	r24, 0x02	; 2
     9ae:	59 f1       	breq	.+86     	; 0xa06 <Display_Task+0xf0>
     9b0:	68 f5       	brcc	.+90     	; 0xa0c <Display_Task+0xf6>
     9b2:	81 30       	cpi	r24, 0x01	; 1
     9b4:	09 f0       	breq	.+2      	; 0x9b8 <Display_Task+0xa2>
     9b6:	48 c0       	rjmp	.+144    	; 0xa48 <Display_Task+0x132>
     9b8:	8c e7       	ldi	r24, 0x7C	; 124
     9ba:	91 e0       	ldi	r25, 0x01	; 1
     9bc:	35 c1       	rjmp	.+618    	; 0xc28 <Display_Task+0x312>
     9be:	86 30       	cpi	r24, 0x06	; 6
     9c0:	71 f1       	breq	.+92     	; 0xa1e <Display_Task+0x108>
     9c2:	50 f1       	brcs	.+84     	; 0xa18 <Display_Task+0x102>
     9c4:	87 30       	cpi	r24, 0x07	; 7
     9c6:	09 f0       	breq	.+2      	; 0x9ca <Display_Task+0xb4>
     9c8:	3f c0       	rjmp	.+126    	; 0xa48 <Display_Task+0x132>
     9ca:	81 e4       	ldi	r24, 0x41	; 65
     9cc:	91 e0       	ldi	r25, 0x01	; 1
     9ce:	2c c1       	rjmp	.+600    	; 0xc28 <Display_Task+0x312>
     9d0:	80 34       	cpi	r24, 0x40	; 64
     9d2:	89 f1       	breq	.+98     	; 0xa36 <Display_Task+0x120>
     9d4:	48 f4       	brcc	.+18     	; 0x9e8 <Display_Task+0xd2>
     9d6:	80 32       	cpi	r24, 0x20	; 32
     9d8:	41 f1       	breq	.+80     	; 0xa2a <Display_Task+0x114>
     9da:	80 33       	cpi	r24, 0x30	; 48
     9dc:	49 f1       	breq	.+82     	; 0xa30 <Display_Task+0x11a>
     9de:	80 31       	cpi	r24, 0x10	; 16
     9e0:	99 f5       	brne	.+102    	; 0xa48 <Display_Task+0x132>
     9e2:	85 e3       	ldi	r24, 0x35	; 53
     9e4:	91 e0       	ldi	r25, 0x01	; 1
     9e6:	20 c1       	rjmp	.+576    	; 0xc28 <Display_Task+0x312>
     9e8:	80 36       	cpi	r24, 0x60	; 96
     9ea:	41 f1       	breq	.+80     	; 0xa3c <Display_Task+0x126>
     9ec:	28 f4       	brcc	.+10     	; 0x9f8 <Display_Task+0xe2>
     9ee:	80 35       	cpi	r24, 0x50	; 80
     9f0:	59 f5       	brne	.+86     	; 0xa48 <Display_Task+0x132>
     9f2:	8e e0       	ldi	r24, 0x0E	; 14
     9f4:	91 e0       	ldi	r25, 0x01	; 1
     9f6:	18 c1       	rjmp	.+560    	; 0xc28 <Display_Task+0x312>
     9f8:	80 3e       	cpi	r24, 0xE0	; 224
     9fa:	19 f1       	breq	.+70     	; 0xa42 <Display_Task+0x12c>
     9fc:	80 3f       	cpi	r24, 0xF0	; 240
     9fe:	21 f5       	brne	.+72     	; 0xa48 <Display_Task+0x132>
     a00:	87 ef       	ldi	r24, 0xF7	; 247
     a02:	90 e0       	ldi	r25, 0x00	; 0
     a04:	11 c1       	rjmp	.+546    	; 0xc28 <Display_Task+0x312>
     a06:	82 e7       	ldi	r24, 0x72	; 114
     a08:	91 e0       	ldi	r25, 0x01	; 1
     a0a:	0e c1       	rjmp	.+540    	; 0xc28 <Display_Task+0x312>
     a0c:	89 e6       	ldi	r24, 0x69	; 105
     a0e:	91 e0       	ldi	r25, 0x01	; 1
     a10:	0b c1       	rjmp	.+534    	; 0xc28 <Display_Task+0x312>
     a12:	8e e5       	ldi	r24, 0x5E	; 94
     a14:	91 e0       	ldi	r25, 0x01	; 1
     a16:	08 c1       	rjmp	.+528    	; 0xc28 <Display_Task+0x312>
     a18:	85 e5       	ldi	r24, 0x55	; 85
     a1a:	91 e0       	ldi	r25, 0x01	; 1
     a1c:	05 c1       	rjmp	.+522    	; 0xc28 <Display_Task+0x312>
     a1e:	8b e4       	ldi	r24, 0x4B	; 75
     a20:	91 e0       	ldi	r25, 0x01	; 1
     a22:	02 c1       	rjmp	.+516    	; 0xc28 <Display_Task+0x312>
     a24:	8b e3       	ldi	r24, 0x3B	; 59
     a26:	91 e0       	ldi	r25, 0x01	; 1
     a28:	ff c0       	rjmp	.+510    	; 0xc28 <Display_Task+0x312>
     a2a:	8c e2       	ldi	r24, 0x2C	; 44
     a2c:	91 e0       	ldi	r25, 0x01	; 1
     a2e:	fc c0       	rjmp	.+504    	; 0xc28 <Display_Task+0x312>
     a30:	82 e2       	ldi	r24, 0x22	; 34
     a32:	91 e0       	ldi	r25, 0x01	; 1
     a34:	f9 c0       	rjmp	.+498    	; 0xc28 <Display_Task+0x312>
     a36:	88 e1       	ldi	r24, 0x18	; 24
     a38:	91 e0       	ldi	r25, 0x01	; 1
     a3a:	f6 c0       	rjmp	.+492    	; 0xc28 <Display_Task+0x312>
     a3c:	86 e0       	ldi	r24, 0x06	; 6
     a3e:	91 e0       	ldi	r25, 0x01	; 1
     a40:	f3 c0       	rjmp	.+486    	; 0xc28 <Display_Task+0x312>
     a42:	8d ef       	ldi	r24, 0xFD	; 253
     a44:	90 e0       	ldi	r25, 0x00	; 0
     a46:	f0 c0       	rjmp	.+480    	; 0xc28 <Display_Task+0x312>
     a48:	8f ee       	ldi	r24, 0xEF	; 239
     a4a:	90 e0       	ldi	r25, 0x00	; 0
     a4c:	ed c0       	rjmp	.+474    	; 0xc28 <Display_Task+0x312>
     a4e:	ce 01       	movw	r24, r28
     a50:	01 96       	adiw	r24, 0x01	; 1
     a52:	bf 01       	movw	r22, r30
     a54:	0e 94 7e 09 	call	0x12fc	; 0x12fc <__divmodhi4>
     a58:	28 17       	cp	r18, r24
     a5a:	39 07       	cpc	r19, r25
     a5c:	c9 f4       	brne	.+50     	; 0xa90 <Display_Task+0x17a>
     a5e:	86 ee       	ldi	r24, 0xE6	; 230
     a60:	90 e0       	ldi	r25, 0x00	; 0
     a62:	0e 94 f8 07 	call	0xff0	; 0xff0 <GLCD_WriteString_progmem>
     a66:	20 91 37 05 	lds	r18, 0x0537
     a6a:	30 91 38 05 	lds	r19, 0x0538
     a6e:	a4 e6       	ldi	r26, 0x64	; 100
     a70:	b0 e0       	ldi	r27, 0x00	; 0
     a72:	0e 94 92 09 	call	0x1324	; 0x1324 <__umulhisi3>
     a76:	34 e0       	ldi	r19, 0x04	; 4
     a78:	96 95       	lsr	r25
     a7a:	87 95       	ror	r24
     a7c:	77 95       	ror	r23
     a7e:	67 95       	ror	r22
     a80:	3a 95       	dec	r19
     a82:	d1 f7       	brne	.-12     	; 0xa78 <Display_Task+0x162>
     a84:	cb 01       	movw	r24, r22
     a86:	0e 94 5a 08 	call	0x10b4	; 0x10b4 <GLCD_voltage>
     a8a:	84 ee       	ldi	r24, 0xE4	; 228
     a8c:	90 e0       	ldi	r25, 0x00	; 0
     a8e:	cc c0       	rjmp	.+408    	; 0xc28 <Display_Task+0x312>
     a90:	ce 01       	movw	r24, r28
     a92:	02 96       	adiw	r24, 0x02	; 2
     a94:	bf 01       	movw	r22, r30
     a96:	0e 94 7e 09 	call	0x12fc	; 0x12fc <__divmodhi4>
     a9a:	28 17       	cp	r18, r24
     a9c:	39 07       	cpc	r19, r25
     a9e:	c9 f4       	brne	.+50     	; 0xad2 <Display_Task+0x1bc>
     aa0:	8b ed       	ldi	r24, 0xDB	; 219
     aa2:	90 e0       	ldi	r25, 0x00	; 0
     aa4:	0e 94 f8 07 	call	0xff0	; 0xff0 <GLCD_WriteString_progmem>
     aa8:	a0 91 39 05 	lds	r26, 0x0539
     aac:	b0 91 3a 05 	lds	r27, 0x053A
     ab0:	24 e6       	ldi	r18, 0x64	; 100
     ab2:	30 e0       	ldi	r19, 0x00	; 0
     ab4:	0e 94 a1 09 	call	0x1342	; 0x1342 <__usmulhisi3>
     ab8:	24 e0       	ldi	r18, 0x04	; 4
     aba:	96 95       	lsr	r25
     abc:	87 95       	ror	r24
     abe:	77 95       	ror	r23
     ac0:	67 95       	ror	r22
     ac2:	2a 95       	dec	r18
     ac4:	d1 f7       	brne	.-12     	; 0xaba <Display_Task+0x1a4>
     ac6:	cb 01       	movw	r24, r22
     ac8:	0e 94 5a 08 	call	0x10b4	; 0x10b4 <GLCD_voltage>
     acc:	89 ed       	ldi	r24, 0xD9	; 217
     ace:	90 e0       	ldi	r25, 0x00	; 0
     ad0:	ab c0       	rjmp	.+342    	; 0xc28 <Display_Task+0x312>
     ad2:	ce 01       	movw	r24, r28
     ad4:	03 96       	adiw	r24, 0x03	; 3
     ad6:	bf 01       	movw	r22, r30
     ad8:	0e 94 7e 09 	call	0x12fc	; 0x12fc <__divmodhi4>
     adc:	28 17       	cp	r18, r24
     ade:	39 07       	cpc	r19, r25
     ae0:	79 f4       	brne	.+30     	; 0xb00 <Display_Task+0x1ea>
     ae2:	84 ed       	ldi	r24, 0xD4	; 212
     ae4:	90 e0       	ldi	r25, 0x00	; 0
     ae6:	0e 94 f8 07 	call	0xff0	; 0xff0 <GLCD_WriteString_progmem>
     aea:	84 e0       	ldi	r24, 0x04	; 4
     aec:	0e 94 d4 08 	call	0x11a8	; 0x11a8 <GLCD_clear>
     af0:	80 91 3b 05 	lds	r24, 0x053B
     af4:	90 e0       	ldi	r25, 0x00	; 0
     af6:	0e 94 b9 08 	call	0x1172	; 0x1172 <GLCD_dec>
     afa:	82 ed       	ldi	r24, 0xD2	; 210
     afc:	90 e0       	ldi	r25, 0x00	; 0
     afe:	94 c0       	rjmp	.+296    	; 0xc28 <Display_Task+0x312>
     b00:	ce 01       	movw	r24, r28
     b02:	04 96       	adiw	r24, 0x04	; 4
     b04:	bf 01       	movw	r22, r30
     b06:	0e 94 7e 09 	call	0x12fc	; 0x12fc <__divmodhi4>
     b0a:	28 17       	cp	r18, r24
     b0c:	39 07       	cpc	r19, r25
     b0e:	a1 f4       	brne	.+40     	; 0xb38 <Display_Task+0x222>
     b10:	8c ec       	ldi	r24, 0xCC	; 204
     b12:	90 e0       	ldi	r25, 0x00	; 0
     b14:	0e 94 f8 07 	call	0xff0	; 0xff0 <GLCD_WriteString_progmem>
     b18:	80 91 3f 05 	lds	r24, 0x053F
     b1c:	90 91 40 05 	lds	r25, 0x0540
     b20:	0e 94 b9 08 	call	0x1172	; 0x1172 <GLCD_dec>
     b24:	86 ec       	ldi	r24, 0xC6	; 198
     b26:	90 e0       	ldi	r25, 0x00	; 0
     b28:	0e 94 f8 07 	call	0xff0	; 0xff0 <GLCD_WriteString_progmem>
     b2c:	82 e0       	ldi	r24, 0x02	; 2
     b2e:	0e 94 d4 08 	call	0x11a8	; 0x11a8 <GLCD_clear>
     b32:	80 91 41 05 	lds	r24, 0x0541
     b36:	1b c0       	rjmp	.+54     	; 0xb6e <Display_Task+0x258>
     b38:	ce 01       	movw	r24, r28
     b3a:	05 96       	adiw	r24, 0x05	; 5
     b3c:	bf 01       	movw	r22, r30
     b3e:	0e 94 7e 09 	call	0x12fc	; 0x12fc <__divmodhi4>
     b42:	28 17       	cp	r18, r24
     b44:	39 07       	cpc	r19, r25
     b46:	b9 f4       	brne	.+46     	; 0xb76 <Display_Task+0x260>
     b48:	80 ec       	ldi	r24, 0xC0	; 192
     b4a:	90 e0       	ldi	r25, 0x00	; 0
     b4c:	0e 94 f8 07 	call	0xff0	; 0xff0 <GLCD_WriteString_progmem>
     b50:	80 91 42 05 	lds	r24, 0x0542
     b54:	90 91 43 05 	lds	r25, 0x0543
     b58:	0e 94 b9 08 	call	0x1172	; 0x1172 <GLCD_dec>
     b5c:	8a eb       	ldi	r24, 0xBA	; 186
     b5e:	90 e0       	ldi	r25, 0x00	; 0
     b60:	0e 94 f8 07 	call	0xff0	; 0xff0 <GLCD_WriteString_progmem>
     b64:	82 e0       	ldi	r24, 0x02	; 2
     b66:	0e 94 d4 08 	call	0x11a8	; 0x11a8 <GLCD_clear>
     b6a:	80 91 44 05 	lds	r24, 0x0544
     b6e:	90 e0       	ldi	r25, 0x00	; 0
     b70:	0e 94 b9 08 	call	0x1172	; 0x1172 <GLCD_dec>
     b74:	5b c0       	rjmp	.+182    	; 0xc2c <Display_Task+0x316>
     b76:	ce 01       	movw	r24, r28
     b78:	06 96       	adiw	r24, 0x06	; 6
     b7a:	bf 01       	movw	r22, r30
     b7c:	0e 94 7e 09 	call	0x12fc	; 0x12fc <__divmodhi4>
     b80:	28 17       	cp	r18, r24
     b82:	39 07       	cpc	r19, r25
     b84:	69 f4       	brne	.+26     	; 0xba0 <Display_Task+0x28a>
     b86:	83 eb       	ldi	r24, 0xB3	; 179
     b88:	90 e0       	ldi	r25, 0x00	; 0
     b8a:	0e 94 f8 07 	call	0xff0	; 0xff0 <GLCD_WriteString_progmem>
     b8e:	80 91 45 05 	lds	r24, 0x0545
     b92:	90 91 46 05 	lds	r25, 0x0546
     b96:	0e 94 b9 08 	call	0x1172	; 0x1172 <GLCD_dec>
     b9a:	80 eb       	ldi	r24, 0xB0	; 176
     b9c:	90 e0       	ldi	r25, 0x00	; 0
     b9e:	44 c0       	rjmp	.+136    	; 0xc28 <Display_Task+0x312>
     ba0:	ce 01       	movw	r24, r28
     ba2:	07 96       	adiw	r24, 0x07	; 7
     ba4:	bf 01       	movw	r22, r30
     ba6:	0e 94 7e 09 	call	0x12fc	; 0x12fc <__divmodhi4>
     baa:	28 17       	cp	r18, r24
     bac:	39 07       	cpc	r19, r25
     bae:	79 f4       	brne	.+30     	; 0xbce <Display_Task+0x2b8>
     bb0:	8a ea       	ldi	r24, 0xAA	; 170
     bb2:	90 e0       	ldi	r25, 0x00	; 0
     bb4:	0e 94 f8 07 	call	0xff0	; 0xff0 <GLCD_WriteString_progmem>
     bb8:	86 e0       	ldi	r24, 0x06	; 6
     bba:	0e 94 d4 08 	call	0x11a8	; 0x11a8 <GLCD_clear>
     bbe:	80 91 47 05 	lds	r24, 0x0547
     bc2:	90 e0       	ldi	r25, 0x00	; 0
     bc4:	0e 94 b9 08 	call	0x1172	; 0x1172 <GLCD_dec>
     bc8:	86 ea       	ldi	r24, 0xA6	; 166
     bca:	90 e0       	ldi	r25, 0x00	; 0
     bcc:	2d c0       	rjmp	.+90     	; 0xc28 <Display_Task+0x312>
     bce:	ce 01       	movw	r24, r28
     bd0:	08 96       	adiw	r24, 0x08	; 8
     bd2:	bf 01       	movw	r22, r30
     bd4:	0e 94 7e 09 	call	0x12fc	; 0x12fc <__divmodhi4>
     bd8:	28 17       	cp	r18, r24
     bda:	39 07       	cpc	r19, r25
     bdc:	79 f4       	brne	.+30     	; 0xbfc <Display_Task+0x2e6>
     bde:	80 ea       	ldi	r24, 0xA0	; 160
     be0:	90 e0       	ldi	r25, 0x00	; 0
     be2:	0e 94 f8 07 	call	0xff0	; 0xff0 <GLCD_WriteString_progmem>
     be6:	86 e0       	ldi	r24, 0x06	; 6
     be8:	0e 94 d4 08 	call	0x11a8	; 0x11a8 <GLCD_clear>
     bec:	80 91 49 05 	lds	r24, 0x0549
     bf0:	90 e0       	ldi	r25, 0x00	; 0
     bf2:	0e 94 b9 08 	call	0x1172	; 0x1172 <GLCD_dec>
     bf6:	8c e9       	ldi	r24, 0x9C	; 156
     bf8:	90 e0       	ldi	r25, 0x00	; 0
     bfa:	16 c0       	rjmp	.+44     	; 0xc28 <Display_Task+0x312>
     bfc:	ce 01       	movw	r24, r28
     bfe:	09 96       	adiw	r24, 0x09	; 9
     c00:	bf 01       	movw	r22, r30
     c02:	0e 94 7e 09 	call	0x12fc	; 0x12fc <__divmodhi4>
     c06:	28 17       	cp	r18, r24
     c08:	39 07       	cpc	r19, r25
     c0a:	81 f4       	brne	.+32     	; 0xc2c <Display_Task+0x316>
     c0c:	86 e9       	ldi	r24, 0x96	; 150
     c0e:	90 e0       	ldi	r25, 0x00	; 0
     c10:	0e 94 f8 07 	call	0xff0	; 0xff0 <GLCD_WriteString_progmem>
     c14:	86 e0       	ldi	r24, 0x06	; 6
     c16:	0e 94 d4 08 	call	0x11a8	; 0x11a8 <GLCD_clear>
     c1a:	80 91 4b 05 	lds	r24, 0x054B
     c1e:	90 e0       	ldi	r25, 0x00	; 0
     c20:	0e 94 b9 08 	call	0x1172	; 0x1172 <GLCD_dec>
     c24:	84 e9       	ldi	r24, 0x94	; 148
     c26:	90 e0       	ldi	r25, 0x00	; 0
     c28:	0e 94 f8 07 	call	0xff0	; 0xff0 <GLCD_WriteString_progmem>
     c2c:	80 91 10 01 	lds	r24, 0x0110
     c30:	81 11       	cpse	r24, r1
     c32:	37 c0       	rjmp	.+110    	; 0xca2 <Display_Task+0x38c>
     c34:	80 91 3b 05 	lds	r24, 0x053B
     c38:	90 91 0d 01 	lds	r25, 0x010D
     c3c:	89 17       	cp	r24, r25
     c3e:	89 f1       	breq	.+98     	; 0xca2 <Display_Task+0x38c>
     c40:	98 17       	cp	r25, r24
     c42:	a8 f4       	brcc	.+42     	; 0xc6e <Display_Task+0x358>
     c44:	85 36       	cpi	r24, 0x65	; 101
     c46:	18 f0       	brcs	.+6      	; 0xc4e <Display_Task+0x338>
     c48:	84 e6       	ldi	r24, 0x64	; 100
     c4a:	80 93 3b 05 	sts	0x053B, r24
     c4e:	20 91 3b 05 	lds	r18, 0x053B
     c52:	26 95       	lsr	r18
     c54:	82 2f       	mov	r24, r18
     c56:	90 e0       	ldi	r25, 0x00	; 0
     c58:	90 93 0c 01 	sts	0x010C, r25
     c5c:	80 93 0b 01 	sts	0x010B, r24
     c60:	6e e3       	ldi	r22, 0x3E	; 62
     c62:	62 1b       	sub	r22, r18
     c64:	4c e1       	ldi	r20, 0x1C	; 28
     c66:	87 e6       	ldi	r24, 0x67	; 103
     c68:	0e 94 96 06 	call	0xd2c	; 0xd2c <GLCD_Rectangle_Full>
     c6c:	16 c0       	rjmp	.+44     	; 0xc9a <Display_Task+0x384>
     c6e:	28 2f       	mov	r18, r24
     c70:	26 95       	lsr	r18
     c72:	82 e3       	ldi	r24, 0x32	; 50
     c74:	90 e0       	ldi	r25, 0x00	; 0
     c76:	82 1b       	sub	r24, r18
     c78:	91 09       	sbc	r25, r1
     c7a:	82 33       	cpi	r24, 0x32	; 50
     c7c:	91 05       	cpc	r25, r1
     c7e:	10 f0       	brcs	.+4      	; 0xc84 <Display_Task+0x36e>
     c80:	81 e3       	ldi	r24, 0x31	; 49
     c82:	90 e0       	ldi	r25, 0x00	; 0
     c84:	90 93 0c 01 	sts	0x010C, r25
     c88:	80 93 0b 01 	sts	0x010B, r24
     c8c:	20 91 0b 01 	lds	r18, 0x010B
     c90:	4c e1       	ldi	r20, 0x1C	; 28
     c92:	6d e0       	ldi	r22, 0x0D	; 13
     c94:	87 e6       	ldi	r24, 0x67	; 103
     c96:	0e 94 bc 06 	call	0xd78	; 0xd78 <GLCD_Rectangle_Clear>
     c9a:	80 91 3b 05 	lds	r24, 0x053B
     c9e:	80 93 0d 01 	sts	0x010D, r24
     ca2:	df 91       	pop	r29
     ca4:	cf 91       	pop	r28
     ca6:	08 95       	ret

00000ca8 <GLCD_Rectangle>:
     ca8:	cf 92       	push	r12
     caa:	df 92       	push	r13
     cac:	ef 92       	push	r14
     cae:	ff 92       	push	r15
     cb0:	0f 93       	push	r16
     cb2:	1f 93       	push	r17
     cb4:	cf 93       	push	r28
     cb6:	df 93       	push	r29
     cb8:	1f 92       	push	r1
     cba:	cd b7       	in	r28, 0x3d	; 61
     cbc:	de b7       	in	r29, 0x3e	; 62
     cbe:	d8 2e       	mov	r13, r24
     cc0:	16 2f       	mov	r17, r22
     cc2:	f4 2e       	mov	r15, r20
     cc4:	e2 2e       	mov	r14, r18
     cc6:	e6 0e       	add	r14, r22
     cc8:	c6 2e       	mov	r12, r22
     cca:	0f ef       	ldi	r16, 0xFF	; 255
     ccc:	04 0f       	add	r16, r20
     cce:	08 0f       	add	r16, r24
     cd0:	ce 14       	cp	r12, r14
     cd2:	71 f0       	breq	.+28     	; 0xcf0 <GLCD_Rectangle+0x48>
     cd4:	41 e0       	ldi	r20, 0x01	; 1
     cd6:	6c 2d       	mov	r22, r12
     cd8:	8d 2d       	mov	r24, r13
     cda:	29 83       	std	Y+1, r18	; 0x01
     cdc:	0e 94 13 08 	call	0x1026	; 0x1026 <GLCD_SetPixel>
     ce0:	41 e0       	ldi	r20, 0x01	; 1
     ce2:	6c 2d       	mov	r22, r12
     ce4:	80 2f       	mov	r24, r16
     ce6:	0e 94 13 08 	call	0x1026	; 0x1026 <GLCD_SetPixel>
     cea:	c3 94       	inc	r12
     cec:	29 81       	ldd	r18, Y+1	; 0x01
     cee:	f0 cf       	rjmp	.-32     	; 0xcd0 <GLCD_Rectangle+0x28>
     cf0:	fd 0c       	add	r15, r13
     cf2:	0d 2d       	mov	r16, r13
     cf4:	ee 24       	eor	r14, r14
     cf6:	ea 94       	dec	r14
     cf8:	e1 0e       	add	r14, r17
     cfa:	e2 0e       	add	r14, r18
     cfc:	0f 15       	cp	r16, r15
     cfe:	61 f0       	breq	.+24     	; 0xd18 <GLCD_Rectangle+0x70>
     d00:	41 e0       	ldi	r20, 0x01	; 1
     d02:	61 2f       	mov	r22, r17
     d04:	80 2f       	mov	r24, r16
     d06:	0e 94 13 08 	call	0x1026	; 0x1026 <GLCD_SetPixel>
     d0a:	41 e0       	ldi	r20, 0x01	; 1
     d0c:	6e 2d       	mov	r22, r14
     d0e:	80 2f       	mov	r24, r16
     d10:	0e 94 13 08 	call	0x1026	; 0x1026 <GLCD_SetPixel>
     d14:	0f 5f       	subi	r16, 0xFF	; 255
     d16:	f2 cf       	rjmp	.-28     	; 0xcfc <GLCD_Rectangle+0x54>
     d18:	0f 90       	pop	r0
     d1a:	df 91       	pop	r29
     d1c:	cf 91       	pop	r28
     d1e:	1f 91       	pop	r17
     d20:	0f 91       	pop	r16
     d22:	ff 90       	pop	r15
     d24:	ef 90       	pop	r14
     d26:	df 90       	pop	r13
     d28:	cf 90       	pop	r12
     d2a:	08 95       	ret

00000d2c <GLCD_Rectangle_Full>:
     d2c:	ef 92       	push	r14
     d2e:	ff 92       	push	r15
     d30:	0f 93       	push	r16
     d32:	1f 93       	push	r17
     d34:	cf 93       	push	r28
     d36:	df 93       	push	r29
     d38:	1f 92       	push	r1
     d3a:	cd b7       	in	r28, 0x3d	; 61
     d3c:	de b7       	in	r29, 0x3e	; 62
     d3e:	06 2f       	mov	r16, r22
     d40:	14 2f       	mov	r17, r20
     d42:	18 0f       	add	r17, r24
     d44:	e8 2e       	mov	r14, r24
     d46:	26 0f       	add	r18, r22
     d48:	e1 16       	cp	r14, r17
     d4a:	71 f0       	breq	.+28     	; 0xd68 <GLCD_Rectangle_Full+0x3c>
     d4c:	f0 2e       	mov	r15, r16
     d4e:	f2 16       	cp	r15, r18
     d50:	49 f0       	breq	.+18     	; 0xd64 <GLCD_Rectangle_Full+0x38>
     d52:	41 e0       	ldi	r20, 0x01	; 1
     d54:	6f 2d       	mov	r22, r15
     d56:	8e 2d       	mov	r24, r14
     d58:	29 83       	std	Y+1, r18	; 0x01
     d5a:	0e 94 13 08 	call	0x1026	; 0x1026 <GLCD_SetPixel>
     d5e:	f3 94       	inc	r15
     d60:	29 81       	ldd	r18, Y+1	; 0x01
     d62:	f5 cf       	rjmp	.-22     	; 0xd4e <GLCD_Rectangle_Full+0x22>
     d64:	e3 94       	inc	r14
     d66:	f0 cf       	rjmp	.-32     	; 0xd48 <GLCD_Rectangle_Full+0x1c>
     d68:	0f 90       	pop	r0
     d6a:	df 91       	pop	r29
     d6c:	cf 91       	pop	r28
     d6e:	1f 91       	pop	r17
     d70:	0f 91       	pop	r16
     d72:	ff 90       	pop	r15
     d74:	ef 90       	pop	r14
     d76:	08 95       	ret

00000d78 <GLCD_Rectangle_Clear>:
     d78:	df 92       	push	r13
     d7a:	ef 92       	push	r14
     d7c:	ff 92       	push	r15
     d7e:	0f 93       	push	r16
     d80:	1f 93       	push	r17
     d82:	cf 93       	push	r28
     d84:	df 93       	push	r29
     d86:	1f 92       	push	r1
     d88:	cd b7       	in	r28, 0x3d	; 61
     d8a:	de b7       	in	r29, 0x3e	; 62
     d8c:	18 2f       	mov	r17, r24
     d8e:	06 2f       	mov	r16, r22
     d90:	d4 2e       	mov	r13, r20
     d92:	d8 0e       	add	r13, r24
     d94:	22 23       	and	r18, r18
     d96:	81 f0       	breq	.+32     	; 0xdb8 <GLCD_Rectangle_Clear+0x40>
     d98:	e1 2e       	mov	r14, r17
     d9a:	f2 2e       	mov	r15, r18
     d9c:	f0 0e       	add	r15, r16
     d9e:	ed 14       	cp	r14, r13
     da0:	49 f0       	breq	.+18     	; 0xdb4 <GLCD_Rectangle_Clear+0x3c>
     da2:	40 e0       	ldi	r20, 0x00	; 0
     da4:	6f 2d       	mov	r22, r15
     da6:	8e 2d       	mov	r24, r14
     da8:	29 83       	std	Y+1, r18	; 0x01
     daa:	0e 94 13 08 	call	0x1026	; 0x1026 <GLCD_SetPixel>
     dae:	e3 94       	inc	r14
     db0:	29 81       	ldd	r18, Y+1	; 0x01
     db2:	f5 cf       	rjmp	.-22     	; 0xd9e <GLCD_Rectangle_Clear+0x26>
     db4:	21 50       	subi	r18, 0x01	; 1
     db6:	ee cf       	rjmp	.-36     	; 0xd94 <GLCD_Rectangle_Clear+0x1c>
     db8:	0f 90       	pop	r0
     dba:	df 91       	pop	r29
     dbc:	cf 91       	pop	r28
     dbe:	1f 91       	pop	r17
     dc0:	0f 91       	pop	r16
     dc2:	ff 90       	pop	r15
     dc4:	ef 90       	pop	r14
     dc6:	df 90       	pop	r13
     dc8:	08 95       	ret

00000dca <GLCD_InitializePorts>:
     dca:	22 9a       	sbi	0x04, 2	; 4
     dcc:	21 9a       	sbi	0x04, 1	; 4
     dce:	20 9a       	sbi	0x04, 0	; 4
     dd0:	0f 9a       	sbi	0x01, 7	; 1
     dd2:	23 98       	cbi	0x04, 3	; 4
     dd4:	28 9a       	sbi	0x05, 0	; 5
     dd6:	8c b5       	in	r24, 0x2c	; 44
     dd8:	8d 65       	ori	r24, 0x5D	; 93
     dda:	8c bd       	out	0x2c, r24	; 44
     ddc:	1e bc       	out	0x2e, r1	; 46
     dde:	0d b4       	in	r0, 0x2d	; 45
     de0:	07 fe       	sbrs	r0, 7
     de2:	fd cf       	rjmp	.-6      	; 0xdde <GLCD_InitializePorts+0x14>
     de4:	28 98       	cbi	0x05, 0	; 5
     de6:	10 92 80 05 	sts	0x0580, r1
     dea:	10 92 7f 05 	sts	0x057F, r1
     dee:	10 92 7e 05 	sts	0x057E, r1
     df2:	10 92 7d 05 	sts	0x057D, r1
     df6:	08 95       	ret

00000df8 <GLCD_WriteData>:
     df8:	0d b4       	in	r0, 0x2d	; 45
     dfa:	07 fe       	sbrs	r0, 7
     dfc:	fd cf       	rjmp	.-6      	; 0xdf8 <GLCD_WriteData>
     dfe:	17 9a       	sbi	0x02, 7	; 2
     e00:	8e bd       	out	0x2e, r24	; 46
     e02:	40 91 7d 05 	lds	r20, 0x057D
     e06:	50 91 7e 05 	lds	r21, 0x057E
     e0a:	20 91 7f 05 	lds	r18, 0x057F
     e0e:	30 91 80 05 	lds	r19, 0x0580
     e12:	94 e8       	ldi	r25, 0x84	; 132
     e14:	94 9f       	mul	r25, r20
     e16:	f0 01       	movw	r30, r0
     e18:	95 9f       	mul	r25, r21
     e1a:	f0 0d       	add	r31, r0
     e1c:	11 24       	eor	r1, r1
     e1e:	e2 0f       	add	r30, r18
     e20:	f3 1f       	adc	r31, r19
     e22:	ee 5e       	subi	r30, 0xEE	; 238
     e24:	fe 4f       	sbci	r31, 0xFE	; 254
     e26:	80 83       	st	Z, r24
     e28:	80 91 7f 05 	lds	r24, 0x057F
     e2c:	90 91 80 05 	lds	r25, 0x0580
     e30:	84 38       	cpi	r24, 0x84	; 132
     e32:	91 05       	cpc	r25, r1
     e34:	48 f4       	brcc	.+18     	; 0xe48 <GLCD_WriteData+0x50>
     e36:	80 91 7f 05 	lds	r24, 0x057F
     e3a:	90 91 80 05 	lds	r25, 0x0580
     e3e:	01 96       	adiw	r24, 0x01	; 1
     e40:	90 93 80 05 	sts	0x0580, r25
     e44:	80 93 7f 05 	sts	0x057F, r24
     e48:	08 95       	ret

00000e4a <GLCD_WriteCommand>:
     e4a:	0d b4       	in	r0, 0x2d	; 45
     e4c:	07 fe       	sbrs	r0, 7
     e4e:	fd cf       	rjmp	.-6      	; 0xe4a <GLCD_WriteCommand>
     e50:	17 98       	cbi	0x02, 7	; 2
     e52:	8e bd       	out	0x2e, r24	; 46
     e54:	08 95       	ret

00000e56 <Tab_GoTo>:
     e56:	90 e0       	ldi	r25, 0x00	; 0
     e58:	90 93 80 05 	sts	0x0580, r25
     e5c:	80 93 7f 05 	sts	0x057F, r24
     e60:	70 e0       	ldi	r23, 0x00	; 0
     e62:	70 93 7e 05 	sts	0x057E, r23
     e66:	60 93 7d 05 	sts	0x057D, r22
     e6a:	08 95       	ret

00000e6c <GLCD_ReadData>:
     e6c:	20 91 7d 05 	lds	r18, 0x057D
     e70:	30 91 7e 05 	lds	r19, 0x057E
     e74:	80 91 7f 05 	lds	r24, 0x057F
     e78:	90 91 80 05 	lds	r25, 0x0580
     e7c:	44 e8       	ldi	r20, 0x84	; 132
     e7e:	42 9f       	mul	r20, r18
     e80:	f0 01       	movw	r30, r0
     e82:	43 9f       	mul	r20, r19
     e84:	f0 0d       	add	r31, r0
     e86:	11 24       	eor	r1, r1
     e88:	e8 0f       	add	r30, r24
     e8a:	f9 1f       	adc	r31, r25
     e8c:	ee 5e       	subi	r30, 0xEE	; 238
     e8e:	fe 4f       	sbci	r31, 0xFE	; 254
     e90:	80 81       	ld	r24, Z
     e92:	08 95       	ret

00000e94 <GLCD_Get_x>:
     e94:	80 91 7f 05 	lds	r24, 0x057F
     e98:	90 91 80 05 	lds	r25, 0x0580
     e9c:	08 95       	ret

00000e9e <GLCD_Get_y>:
     e9e:	80 91 7d 05 	lds	r24, 0x057D
     ea2:	90 91 7e 05 	lds	r25, 0x057E
     ea6:	08 95       	ret

00000ea8 <__vector_20>:
     ea8:	1f 92       	push	r1
     eaa:	0f 92       	push	r0
     eac:	0f b6       	in	r0, 0x3f	; 63
     eae:	0f 92       	push	r0
     eb0:	11 24       	eor	r1, r1
     eb2:	28 9a       	sbi	0x05, 0	; 5
     eb4:	0f 90       	pop	r0
     eb6:	0f be       	out	0x3f, r0	; 63
     eb8:	0f 90       	pop	r0
     eba:	1f 90       	pop	r1
     ebc:	18 95       	reti

00000ebe <GLCD_Initialize>:
     ebe:	0e 94 e5 06 	call	0xdca	; 0xdca <GLCD_InitializePorts>
     ec2:	81 ea       	ldi	r24, 0xA1	; 161
     ec4:	0e 94 25 07 	call	0xe4a	; 0xe4a <GLCD_WriteCommand>
     ec8:	80 ec       	ldi	r24, 0xC0	; 192
     eca:	0e 94 25 07 	call	0xe4a	; 0xe4a <GLCD_WriteCommand>
     ece:	82 ea       	ldi	r24, 0xA2	; 162
     ed0:	0e 94 25 07 	call	0xe4a	; 0xe4a <GLCD_WriteCommand>
     ed4:	8f e2       	ldi	r24, 0x2F	; 47
     ed6:	0e 94 25 07 	call	0xe4a	; 0xe4a <GLCD_WriteCommand>
     eda:	88 ec       	ldi	r24, 0xC8	; 200
     edc:	8a 95       	dec	r24
     ede:	f1 f7       	brne	.-4      	; 0xedc <GLCD_Initialize+0x1e>
     ee0:	88 ec       	ldi	r24, 0xC8	; 200
     ee2:	8a 95       	dec	r24
     ee4:	f1 f7       	brne	.-4      	; 0xee2 <GLCD_Initialize+0x24>
     ee6:	88 ec       	ldi	r24, 0xC8	; 200
     ee8:	8a 95       	dec	r24
     eea:	f1 f7       	brne	.-4      	; 0xee8 <GLCD_Initialize+0x2a>
     eec:	88 ec       	ldi	r24, 0xC8	; 200
     eee:	8a 95       	dec	r24
     ef0:	f1 f7       	brne	.-4      	; 0xeee <GLCD_Initialize+0x30>
     ef2:	88 ec       	ldi	r24, 0xC8	; 200
     ef4:	8a 95       	dec	r24
     ef6:	f1 f7       	brne	.-4      	; 0xef4 <GLCD_Initialize+0x36>
     ef8:	88 ec       	ldi	r24, 0xC8	; 200
     efa:	8a 95       	dec	r24
     efc:	f1 f7       	brne	.-4      	; 0xefa <GLCD_Initialize+0x3c>
     efe:	88 ec       	ldi	r24, 0xC8	; 200
     f00:	8a 95       	dec	r24
     f02:	f1 f7       	brne	.-4      	; 0xf00 <GLCD_Initialize+0x42>
     f04:	88 ec       	ldi	r24, 0xC8	; 200
     f06:	8a 95       	dec	r24
     f08:	f1 f7       	brne	.-4      	; 0xf06 <GLCD_Initialize+0x48>
     f0a:	88 ec       	ldi	r24, 0xC8	; 200
     f0c:	8a 95       	dec	r24
     f0e:	f1 f7       	brne	.-4      	; 0xf0c <GLCD_Initialize+0x4e>
     f10:	88 ec       	ldi	r24, 0xC8	; 200
     f12:	8a 95       	dec	r24
     f14:	f1 f7       	brne	.-4      	; 0xf12 <GLCD_Initialize+0x54>
     f16:	81 e8       	ldi	r24, 0x81	; 129
     f18:	0e 94 25 07 	call	0xe4a	; 0xe4a <GLCD_WriteCommand>
     f1c:	84 e1       	ldi	r24, 0x14	; 20
     f1e:	0e 94 25 07 	call	0xe4a	; 0xe4a <GLCD_WriteCommand>
     f22:	84 ea       	ldi	r24, 0xA4	; 164
     f24:	0e 94 25 07 	call	0xe4a	; 0xe4a <GLCD_WriteCommand>
     f28:	8f ea       	ldi	r24, 0xAF	; 175
     f2a:	0e 94 25 07 	call	0xe4a	; 0xe4a <GLCD_WriteCommand>
     f2e:	86 ea       	ldi	r24, 0xA6	; 166
     f30:	0e 94 25 07 	call	0xe4a	; 0xe4a <GLCD_WriteCommand>
     f34:	80 eb       	ldi	r24, 0xB0	; 176
     f36:	0e 94 25 07 	call	0xe4a	; 0xe4a <GLCD_WriteCommand>
     f3a:	80 e1       	ldi	r24, 0x10	; 16
     f3c:	0e 94 25 07 	call	0xe4a	; 0xe4a <GLCD_WriteCommand>
     f40:	80 e0       	ldi	r24, 0x00	; 0
     f42:	0e 94 25 07 	call	0xe4a	; 0xe4a <GLCD_WriteCommand>
     f46:	80 e4       	ldi	r24, 0x40	; 64
     f48:	0c 94 25 07 	jmp	0xe4a	; 0xe4a <GLCD_WriteCommand>

00000f4c <GLCD_GoTo>:
     f4c:	1f 93       	push	r17
     f4e:	cf 93       	push	r28
     f50:	df 93       	push	r29
     f52:	1f 92       	push	r1
     f54:	cd b7       	in	r28, 0x3d	; 61
     f56:	de b7       	in	r29, 0x3e	; 62
     f58:	18 2f       	mov	r17, r24
     f5a:	82 95       	swap	r24
     f5c:	8f 70       	andi	r24, 0x0F	; 15
     f5e:	80 61       	ori	r24, 0x10	; 16
     f60:	69 83       	std	Y+1, r22	; 0x01
     f62:	0e 94 25 07 	call	0xe4a	; 0xe4a <GLCD_WriteCommand>
     f66:	81 2f       	mov	r24, r17
     f68:	8f 70       	andi	r24, 0x0F	; 15
     f6a:	0e 94 25 07 	call	0xe4a	; 0xe4a <GLCD_WriteCommand>
     f6e:	69 81       	ldd	r22, Y+1	; 0x01
     f70:	86 2f       	mov	r24, r22
     f72:	80 6b       	ori	r24, 0xB0	; 176
     f74:	0e 94 25 07 	call	0xe4a	; 0xe4a <GLCD_WriteCommand>
     f78:	69 81       	ldd	r22, Y+1	; 0x01
     f7a:	81 2f       	mov	r24, r17
     f7c:	0f 90       	pop	r0
     f7e:	df 91       	pop	r29
     f80:	cf 91       	pop	r28
     f82:	1f 91       	pop	r17
     f84:	0c 94 2b 07 	jmp	0xe56	; 0xe56 <Tab_GoTo>

00000f88 <GLCD_ClearScreen>:
     f88:	cf 93       	push	r28
     f8a:	df 93       	push	r29
     f8c:	c0 e0       	ldi	r28, 0x00	; 0
     f8e:	6c 2f       	mov	r22, r28
     f90:	80 e0       	ldi	r24, 0x00	; 0
     f92:	0e 94 a6 07 	call	0xf4c	; 0xf4c <GLCD_GoTo>
     f96:	d4 e8       	ldi	r29, 0x84	; 132
     f98:	80 e0       	ldi	r24, 0x00	; 0
     f9a:	0e 94 fc 06 	call	0xdf8	; 0xdf8 <GLCD_WriteData>
     f9e:	d1 50       	subi	r29, 0x01	; 1
     fa0:	d9 f7       	brne	.-10     	; 0xf98 <GLCD_ClearScreen+0x10>
     fa2:	cf 5f       	subi	r28, 0xFF	; 255
     fa4:	c8 30       	cpi	r28, 0x08	; 8
     fa6:	99 f7       	brne	.-26     	; 0xf8e <GLCD_ClearScreen+0x6>
     fa8:	df 91       	pop	r29
     faa:	cf 91       	pop	r28
     fac:	08 95       	ret

00000fae <GLCD_WriteChar>:
     fae:	0f 93       	push	r16
     fb0:	1f 93       	push	r17
     fb2:	cf 93       	push	r28
     fb4:	df 93       	push	r29
     fb6:	90 e0       	ldi	r25, 0x00	; 0
     fb8:	80 97       	sbiw	r24, 0x20	; 32
     fba:	25 e0       	ldi	r18, 0x05	; 5
     fbc:	28 9f       	mul	r18, r24
     fbe:	80 01       	movw	r16, r0
     fc0:	29 9f       	mul	r18, r25
     fc2:	10 0d       	add	r17, r0
     fc4:	11 24       	eor	r1, r1
     fc6:	c0 e0       	ldi	r28, 0x00	; 0
     fc8:	d0 e0       	ldi	r29, 0x00	; 0
     fca:	08 57       	subi	r16, 0x78	; 120
     fcc:	1e 4f       	sbci	r17, 0xFE	; 254
     fce:	f8 01       	movw	r30, r16
     fd0:	ec 0f       	add	r30, r28
     fd2:	fd 1f       	adc	r31, r29
     fd4:	84 91       	lpm	r24, Z
     fd6:	0e 94 fc 06 	call	0xdf8	; 0xdf8 <GLCD_WriteData>
     fda:	21 96       	adiw	r28, 0x01	; 1
     fdc:	c5 30       	cpi	r28, 0x05	; 5
     fde:	d1 05       	cpc	r29, r1
     fe0:	b1 f7       	brne	.-20     	; 0xfce <GLCD_WriteChar+0x20>
     fe2:	80 e0       	ldi	r24, 0x00	; 0
     fe4:	df 91       	pop	r29
     fe6:	cf 91       	pop	r28
     fe8:	1f 91       	pop	r17
     fea:	0f 91       	pop	r16
     fec:	0c 94 fc 06 	jmp	0xdf8	; 0xdf8 <GLCD_WriteData>

00000ff0 <GLCD_WriteString_progmem>:
     ff0:	cf 93       	push	r28
     ff2:	df 93       	push	r29
     ff4:	fc 01       	movw	r30, r24
     ff6:	84 91       	lpm	r24, Z
     ff8:	ef 01       	movw	r28, r30
     ffa:	21 96       	adiw	r28, 0x01	; 1
     ffc:	88 23       	and	r24, r24
     ffe:	21 f0       	breq	.+8      	; 0x1008 <GLCD_WriteString_progmem+0x18>
    1000:	0e 94 d7 07 	call	0xfae	; 0xfae <GLCD_WriteChar>
    1004:	fe 01       	movw	r30, r28
    1006:	f7 cf       	rjmp	.-18     	; 0xff6 <GLCD_WriteString_progmem+0x6>
    1008:	df 91       	pop	r29
    100a:	cf 91       	pop	r28
    100c:	08 95       	ret

0000100e <GLCD_WriteString>:
    100e:	cf 93       	push	r28
    1010:	df 93       	push	r29
    1012:	ec 01       	movw	r28, r24
    1014:	89 91       	ld	r24, Y+
    1016:	88 23       	and	r24, r24
    1018:	19 f0       	breq	.+6      	; 0x1020 <GLCD_WriteString+0x12>
    101a:	0e 94 d7 07 	call	0xfae	; 0xfae <GLCD_WriteChar>
    101e:	fa cf       	rjmp	.-12     	; 0x1014 <GLCD_WriteString+0x6>
    1020:	df 91       	pop	r29
    1022:	cf 91       	pop	r28
    1024:	08 95       	ret

00001026 <GLCD_SetPixel>:
    1026:	df 92       	push	r13
    1028:	ef 92       	push	r14
    102a:	ff 92       	push	r15
    102c:	0f 93       	push	r16
    102e:	1f 93       	push	r17
    1030:	cf 93       	push	r28
    1032:	df 93       	push	r29
    1034:	9c 01       	movw	r18, r24
    1036:	cb 01       	movw	r24, r22
    1038:	7a 01       	movw	r14, r20
    103a:	60 e4       	ldi	r22, 0x40	; 64
    103c:	70 e0       	ldi	r23, 0x00	; 0
    103e:	0e 94 7e 09 	call	0x12fc	; 0x12fc <__divmodhi4>
    1042:	ec 01       	movw	r28, r24
    1044:	8c 01       	movw	r16, r24
    1046:	97 ff       	sbrs	r25, 7
    1048:	02 c0       	rjmp	.+4      	; 0x104e <GLCD_SetPixel+0x28>
    104a:	09 5f       	subi	r16, 0xF9	; 249
    104c:	1f 4f       	sbci	r17, 0xFF	; 255
    104e:	83 e0       	ldi	r24, 0x03	; 3
    1050:	15 95       	asr	r17
    1052:	07 95       	ror	r16
    1054:	8a 95       	dec	r24
    1056:	e1 f7       	brne	.-8      	; 0x1050 <GLCD_SetPixel+0x2a>
    1058:	c9 01       	movw	r24, r18
    105a:	64 e8       	ldi	r22, 0x84	; 132
    105c:	70 e0       	ldi	r23, 0x00	; 0
    105e:	0e 94 7e 09 	call	0x12fc	; 0x12fc <__divmodhi4>
    1062:	d8 2e       	mov	r13, r24
    1064:	60 2f       	mov	r22, r16
    1066:	0e 94 a6 07 	call	0xf4c	; 0xf4c <GLCD_GoTo>
    106a:	0e 94 36 07 	call	0xe6c	; 0xe6c <GLCD_ReadData>
    106e:	48 2f       	mov	r20, r24
    1070:	ce 01       	movw	r24, r28
    1072:	68 e0       	ldi	r22, 0x08	; 8
    1074:	70 e0       	ldi	r23, 0x00	; 0
    1076:	0e 94 7e 09 	call	0x12fc	; 0x12fc <__divmodhi4>
    107a:	21 e0       	ldi	r18, 0x01	; 1
    107c:	30 e0       	ldi	r19, 0x00	; 0
    107e:	08 2e       	mov	r0, r24
    1080:	01 c0       	rjmp	.+2      	; 0x1084 <GLCD_SetPixel+0x5e>
    1082:	22 0f       	add	r18, r18
    1084:	0a 94       	dec	r0
    1086:	ea f7       	brpl	.-6      	; 0x1082 <GLCD_SetPixel+0x5c>
    1088:	ef 28       	or	r14, r15
    108a:	19 f0       	breq	.+6      	; 0x1092 <GLCD_SetPixel+0x6c>
    108c:	c4 2f       	mov	r28, r20
    108e:	c2 2b       	or	r28, r18
    1090:	03 c0       	rjmp	.+6      	; 0x1098 <GLCD_SetPixel+0x72>
    1092:	c2 2f       	mov	r28, r18
    1094:	c0 95       	com	r28
    1096:	c4 23       	and	r28, r20
    1098:	60 2f       	mov	r22, r16
    109a:	8d 2d       	mov	r24, r13
    109c:	0e 94 a6 07 	call	0xf4c	; 0xf4c <GLCD_GoTo>
    10a0:	8c 2f       	mov	r24, r28
    10a2:	df 91       	pop	r29
    10a4:	cf 91       	pop	r28
    10a6:	1f 91       	pop	r17
    10a8:	0f 91       	pop	r16
    10aa:	ff 90       	pop	r15
    10ac:	ef 90       	pop	r14
    10ae:	df 90       	pop	r13
    10b0:	0c 94 fc 06 	jmp	0xdf8	; 0xdf8 <GLCD_WriteData>

000010b4 <GLCD_voltage>:
    10b4:	ef 92       	push	r14
    10b6:	ff 92       	push	r15
    10b8:	0f 93       	push	r16
    10ba:	1f 93       	push	r17
    10bc:	cf 93       	push	r28
    10be:	df 93       	push	r29
    10c0:	00 d0       	rcall	.+0      	; 0x10c2 <GLCD_voltage+0xe>
    10c2:	1f 92       	push	r1
    10c4:	cd b7       	in	r28, 0x3d	; 61
    10c6:	de b7       	in	r29, 0x3e	; 62
    10c8:	8c 01       	movw	r16, r24
    10ca:	64 e6       	ldi	r22, 0x64	; 100
    10cc:	70 e0       	ldi	r23, 0x00	; 0
    10ce:	0e 94 7e 09 	call	0x12fc	; 0x12fc <__divmodhi4>
    10d2:	cb 01       	movw	r24, r22
    10d4:	4a e0       	ldi	r20, 0x0A	; 10
    10d6:	be 01       	movw	r22, r28
    10d8:	6f 5f       	subi	r22, 0xFF	; 255
    10da:	7f 4f       	sbci	r23, 0xFF	; 255
    10dc:	0e 94 a8 09 	call	0x1350	; 0x1350 <__itoa_ncheck>
    10e0:	10 16       	cp	r1, r16
    10e2:	11 06       	cpc	r1, r17
    10e4:	1c f4       	brge	.+6      	; 0x10ec <GLCD_voltage+0x38>
    10e6:	80 e2       	ldi	r24, 0x20	; 32
    10e8:	0e 94 d7 07 	call	0xfae	; 0xfae <GLCD_WriteChar>
    10ec:	c8 01       	movw	r24, r16
    10ee:	89 51       	subi	r24, 0x19	; 25
    10f0:	9c 4f       	sbci	r25, 0xFC	; 252
    10f2:	8f 3c       	cpi	r24, 0xCF	; 207
    10f4:	97 40       	sbci	r25, 0x07	; 7
    10f6:	18 f4       	brcc	.+6      	; 0x10fe <GLCD_voltage+0x4a>
    10f8:	80 e2       	ldi	r24, 0x20	; 32
    10fa:	0e 94 d7 07 	call	0xfae	; 0xfae <GLCD_WriteChar>
    10fe:	ce 01       	movw	r24, r28
    1100:	01 96       	adiw	r24, 0x01	; 1
    1102:	7c 01       	movw	r14, r24
    1104:	f7 01       	movw	r30, r14
    1106:	81 91       	ld	r24, Z+
    1108:	7f 01       	movw	r14, r30
    110a:	88 23       	and	r24, r24
    110c:	19 f0       	breq	.+6      	; 0x1114 <__stack+0x15>
    110e:	0e 94 d7 07 	call	0xfae	; 0xfae <GLCD_WriteChar>
    1112:	f8 cf       	rjmp	.-16     	; 0x1104 <__stack+0x5>
    1114:	8e e2       	ldi	r24, 0x2E	; 46
    1116:	0e 94 d7 07 	call	0xfae	; 0xfae <GLCD_WriteChar>
    111a:	c8 01       	movw	r24, r16
    111c:	17 ff       	sbrs	r17, 7
    111e:	03 c0       	rjmp	.+6      	; 0x1126 <__stack+0x27>
    1120:	91 95       	neg	r25
    1122:	81 95       	neg	r24
    1124:	91 09       	sbc	r25, r1
    1126:	64 e6       	ldi	r22, 0x64	; 100
    1128:	70 e0       	ldi	r23, 0x00	; 0
    112a:	0e 94 7e 09 	call	0x12fc	; 0x12fc <__divmodhi4>
    112e:	8c 01       	movw	r16, r24
    1130:	4a e0       	ldi	r20, 0x0A	; 10
    1132:	be 01       	movw	r22, r28
    1134:	6f 5f       	subi	r22, 0xFF	; 255
    1136:	7f 4f       	sbci	r23, 0xFF	; 255
    1138:	0e 94 a8 09 	call	0x1350	; 0x1350 <__itoa_ncheck>
    113c:	0a 30       	cpi	r16, 0x0A	; 10
    113e:	11 05       	cpc	r17, r1
    1140:	1c f4       	brge	.+6      	; 0x1148 <__stack+0x49>
    1142:	80 e3       	ldi	r24, 0x30	; 48
    1144:	0e 94 d7 07 	call	0xfae	; 0xfae <GLCD_WriteChar>
    1148:	8e 01       	movw	r16, r28
    114a:	0f 5f       	subi	r16, 0xFF	; 255
    114c:	1f 4f       	sbci	r17, 0xFF	; 255
    114e:	f8 01       	movw	r30, r16
    1150:	81 91       	ld	r24, Z+
    1152:	8f 01       	movw	r16, r30
    1154:	88 23       	and	r24, r24
    1156:	19 f0       	breq	.+6      	; 0x115e <__stack+0x5f>
    1158:	0e 94 d7 07 	call	0xfae	; 0xfae <GLCD_WriteChar>
    115c:	f8 cf       	rjmp	.-16     	; 0x114e <__stack+0x4f>
    115e:	0f 90       	pop	r0
    1160:	0f 90       	pop	r0
    1162:	0f 90       	pop	r0
    1164:	df 91       	pop	r29
    1166:	cf 91       	pop	r28
    1168:	1f 91       	pop	r17
    116a:	0f 91       	pop	r16
    116c:	ff 90       	pop	r15
    116e:	ef 90       	pop	r14
    1170:	08 95       	ret

00001172 <GLCD_dec>:
    1172:	cf 93       	push	r28
    1174:	df 93       	push	r29
    1176:	cd b7       	in	r28, 0x3d	; 61
    1178:	de b7       	in	r29, 0x3e	; 62
    117a:	27 97       	sbiw	r28, 0x07	; 7
    117c:	0f b6       	in	r0, 0x3f	; 63
    117e:	f8 94       	cli
    1180:	de bf       	out	0x3e, r29	; 62
    1182:	0f be       	out	0x3f, r0	; 63
    1184:	cd bf       	out	0x3d, r28	; 61
    1186:	4a e0       	ldi	r20, 0x0A	; 10
    1188:	be 01       	movw	r22, r28
    118a:	6f 5f       	subi	r22, 0xFF	; 255
    118c:	7f 4f       	sbci	r23, 0xFF	; 255
    118e:	0e 94 a8 09 	call	0x1350	; 0x1350 <__itoa_ncheck>
    1192:	0e 94 07 08 	call	0x100e	; 0x100e <GLCD_WriteString>
    1196:	27 96       	adiw	r28, 0x07	; 7
    1198:	0f b6       	in	r0, 0x3f	; 63
    119a:	f8 94       	cli
    119c:	de bf       	out	0x3e, r29	; 62
    119e:	0f be       	out	0x3f, r0	; 63
    11a0:	cd bf       	out	0x3d, r28	; 61
    11a2:	df 91       	pop	r29
    11a4:	cf 91       	pop	r28
    11a6:	08 95       	ret

000011a8 <GLCD_clear>:
    11a8:	0f 93       	push	r16
    11aa:	1f 93       	push	r17
    11ac:	cf 93       	push	r28
    11ae:	df 93       	push	r29
    11b0:	1f 92       	push	r1
    11b2:	cd b7       	in	r28, 0x3d	; 61
    11b4:	de b7       	in	r29, 0x3e	; 62
    11b6:	08 2f       	mov	r16, r24
    11b8:	10 e0       	ldi	r17, 0x00	; 0
    11ba:	10 17       	cp	r17, r16
    11bc:	31 f0       	breq	.+12     	; 0x11ca <GLCD_clear+0x22>
    11be:	80 e0       	ldi	r24, 0x00	; 0
    11c0:	91 e0       	ldi	r25, 0x01	; 1
    11c2:	0e 94 07 08 	call	0x100e	; 0x100e <GLCD_WriteString>
    11c6:	1f 5f       	subi	r17, 0xFF	; 255
    11c8:	f8 cf       	rjmp	.-16     	; 0x11ba <GLCD_clear+0x12>
    11ca:	0e 94 4f 07 	call	0xe9e	; 0xe9e <GLCD_Get_y>
    11ce:	89 83       	std	Y+1, r24	; 0x01
    11d0:	0e 94 4a 07 	call	0xe94	; 0xe94 <GLCD_Get_x>
    11d4:	69 81       	ldd	r22, Y+1	; 0x01
    11d6:	96 e0       	ldi	r25, 0x06	; 6
    11d8:	19 9f       	mul	r17, r25
    11da:	80 19       	sub	r24, r0
    11dc:	11 24       	eor	r1, r1
    11de:	0f 90       	pop	r0
    11e0:	df 91       	pop	r29
    11e2:	cf 91       	pop	r28
    11e4:	1f 91       	pop	r17
    11e6:	0f 91       	pop	r16
    11e8:	0c 94 a6 07 	jmp	0xf4c	; 0xf4c <GLCD_GoTo>

000011ec <Timer0_Init>:
    11ec:	84 b5       	in	r24, 0x24	; 36
    11ee:	82 60       	ori	r24, 0x02	; 2
    11f0:	84 bd       	out	0x24, r24	; 36
    11f2:	ee e6       	ldi	r30, 0x6E	; 110
    11f4:	f0 e0       	ldi	r31, 0x00	; 0
    11f6:	80 81       	ld	r24, Z
    11f8:	81 60       	ori	r24, 0x01	; 1
    11fa:	80 83       	st	Z, r24
    11fc:	08 95       	ret

000011fe <timer_get>:
    11fe:	80 91 34 05 	lds	r24, 0x0534
    1202:	90 91 35 05 	lds	r25, 0x0535
    1206:	08 95       	ret

00001208 <timer_time_elapsed>:
    1208:	9c 01       	movw	r18, r24
    120a:	40 91 34 05 	lds	r20, 0x0534
    120e:	50 91 35 05 	lds	r21, 0x0535
    1212:	ca 01       	movw	r24, r20
    1214:	82 1b       	sub	r24, r18
    1216:	93 0b       	sbc	r25, r19
    1218:	42 17       	cp	r20, r18
    121a:	53 07       	cpc	r21, r19
    121c:	08 f4       	brcc	.+2      	; 0x1220 <timer_time_elapsed+0x18>
    121e:	01 97       	sbiw	r24, 0x01	; 1
    1220:	08 95       	ret

00001222 <timer_new_tick>:
    1222:	80 91 32 05 	lds	r24, 0x0532
    1226:	90 91 33 05 	lds	r25, 0x0533
    122a:	0e 94 04 09 	call	0x1208	; 0x1208 <timer_time_elapsed>
    122e:	ca 97       	sbiw	r24, 0x3a	; 58
    1230:	50 f0       	brcs	.+20     	; 0x1246 <timer_new_tick+0x24>
    1232:	80 91 34 05 	lds	r24, 0x0534
    1236:	90 91 35 05 	lds	r25, 0x0535
    123a:	90 93 33 05 	sts	0x0533, r25
    123e:	80 93 32 05 	sts	0x0532, r24
    1242:	81 e0       	ldi	r24, 0x01	; 1
    1244:	08 95       	ret
    1246:	80 e0       	ldi	r24, 0x00	; 0
    1248:	08 95       	ret

0000124a <__vector_9>:
    124a:	1f 92       	push	r1
    124c:	0f 92       	push	r0
    124e:	0f b6       	in	r0, 0x3f	; 63
    1250:	0f 92       	push	r0
    1252:	11 24       	eor	r1, r1
    1254:	8f 93       	push	r24
    1256:	9f 93       	push	r25
    1258:	80 91 34 05 	lds	r24, 0x0534
    125c:	90 91 35 05 	lds	r25, 0x0535
    1260:	01 96       	adiw	r24, 0x01	; 1
    1262:	90 93 35 05 	sts	0x0535, r25
    1266:	80 93 34 05 	sts	0x0534, r24
    126a:	9f 91       	pop	r25
    126c:	8f 91       	pop	r24
    126e:	0f 90       	pop	r0
    1270:	0f be       	out	0x3f, r0	; 63
    1272:	0f 90       	pop	r0
    1274:	1f 90       	pop	r1
    1276:	18 95       	reti

00001278 <__vector_15>:
    1278:	1f 92       	push	r1
    127a:	0f 92       	push	r0
    127c:	0f b6       	in	r0, 0x3f	; 63
    127e:	0f 92       	push	r0
    1280:	11 24       	eor	r1, r1
    1282:	8f 93       	push	r24
    1284:	9f 93       	push	r25
    1286:	80 91 34 05 	lds	r24, 0x0534
    128a:	90 91 35 05 	lds	r25, 0x0535
    128e:	01 96       	adiw	r24, 0x01	; 1
    1290:	90 93 35 05 	sts	0x0535, r25
    1294:	80 93 34 05 	sts	0x0534, r24
    1298:	9f 91       	pop	r25
    129a:	8f 91       	pop	r24
    129c:	0f 90       	pop	r0
    129e:	0f be       	out	0x3f, r0	; 63
    12a0:	0f 90       	pop	r0
    12a2:	1f 90       	pop	r1
    12a4:	18 95       	reti

000012a6 <__vector_17>:
    12a6:	1f 92       	push	r1
    12a8:	0f 92       	push	r0
    12aa:	0f b6       	in	r0, 0x3f	; 63
    12ac:	0f 92       	push	r0
    12ae:	11 24       	eor	r1, r1
    12b0:	8f 93       	push	r24
    12b2:	9f 93       	push	r25
    12b4:	80 91 34 05 	lds	r24, 0x0534
    12b8:	90 91 35 05 	lds	r25, 0x0535
    12bc:	01 96       	adiw	r24, 0x01	; 1
    12be:	90 93 35 05 	sts	0x0535, r25
    12c2:	80 93 34 05 	sts	0x0534, r24
    12c6:	9f 91       	pop	r25
    12c8:	8f 91       	pop	r24
    12ca:	0f 90       	pop	r0
    12cc:	0f be       	out	0x3f, r0	; 63
    12ce:	0f 90       	pop	r0
    12d0:	1f 90       	pop	r1
    12d2:	18 95       	reti

000012d4 <__udivmodhi4>:
    12d4:	aa 1b       	sub	r26, r26
    12d6:	bb 1b       	sub	r27, r27
    12d8:	51 e1       	ldi	r21, 0x11	; 17
    12da:	07 c0       	rjmp	.+14     	; 0x12ea <__udivmodhi4_ep>

000012dc <__udivmodhi4_loop>:
    12dc:	aa 1f       	adc	r26, r26
    12de:	bb 1f       	adc	r27, r27
    12e0:	a6 17       	cp	r26, r22
    12e2:	b7 07       	cpc	r27, r23
    12e4:	10 f0       	brcs	.+4      	; 0x12ea <__udivmodhi4_ep>
    12e6:	a6 1b       	sub	r26, r22
    12e8:	b7 0b       	sbc	r27, r23

000012ea <__udivmodhi4_ep>:
    12ea:	88 1f       	adc	r24, r24
    12ec:	99 1f       	adc	r25, r25
    12ee:	5a 95       	dec	r21
    12f0:	a9 f7       	brne	.-22     	; 0x12dc <__udivmodhi4_loop>
    12f2:	80 95       	com	r24
    12f4:	90 95       	com	r25
    12f6:	bc 01       	movw	r22, r24
    12f8:	cd 01       	movw	r24, r26
    12fa:	08 95       	ret

000012fc <__divmodhi4>:
    12fc:	97 fb       	bst	r25, 7
    12fe:	07 2e       	mov	r0, r23
    1300:	16 f4       	brtc	.+4      	; 0x1306 <__divmodhi4+0xa>
    1302:	00 94       	com	r0
    1304:	07 d0       	rcall	.+14     	; 0x1314 <__divmodhi4_neg1>
    1306:	77 fd       	sbrc	r23, 7
    1308:	09 d0       	rcall	.+18     	; 0x131c <__divmodhi4_neg2>
    130a:	0e 94 6a 09 	call	0x12d4	; 0x12d4 <__udivmodhi4>
    130e:	07 fc       	sbrc	r0, 7
    1310:	05 d0       	rcall	.+10     	; 0x131c <__divmodhi4_neg2>
    1312:	3e f4       	brtc	.+14     	; 0x1322 <__divmodhi4_exit>

00001314 <__divmodhi4_neg1>:
    1314:	90 95       	com	r25
    1316:	81 95       	neg	r24
    1318:	9f 4f       	sbci	r25, 0xFF	; 255
    131a:	08 95       	ret

0000131c <__divmodhi4_neg2>:
    131c:	70 95       	com	r23
    131e:	61 95       	neg	r22
    1320:	7f 4f       	sbci	r23, 0xFF	; 255

00001322 <__divmodhi4_exit>:
    1322:	08 95       	ret

00001324 <__umulhisi3>:
    1324:	a2 9f       	mul	r26, r18
    1326:	b0 01       	movw	r22, r0
    1328:	b3 9f       	mul	r27, r19
    132a:	c0 01       	movw	r24, r0
    132c:	a3 9f       	mul	r26, r19
    132e:	70 0d       	add	r23, r0
    1330:	81 1d       	adc	r24, r1
    1332:	11 24       	eor	r1, r1
    1334:	91 1d       	adc	r25, r1
    1336:	b2 9f       	mul	r27, r18
    1338:	70 0d       	add	r23, r0
    133a:	81 1d       	adc	r24, r1
    133c:	11 24       	eor	r1, r1
    133e:	91 1d       	adc	r25, r1
    1340:	08 95       	ret

00001342 <__usmulhisi3>:
    1342:	0e 94 92 09 	call	0x1324	; 0x1324 <__umulhisi3>

00001346 <__usmulhisi3_tail>:
    1346:	b7 ff       	sbrs	r27, 7
    1348:	08 95       	ret
    134a:	82 1b       	sub	r24, r18
    134c:	93 0b       	sbc	r25, r19
    134e:	08 95       	ret

00001350 <__itoa_ncheck>:
    1350:	bb 27       	eor	r27, r27
    1352:	4a 30       	cpi	r20, 0x0A	; 10
    1354:	31 f4       	brne	.+12     	; 0x1362 <__itoa_ncheck+0x12>
    1356:	99 23       	and	r25, r25
    1358:	22 f4       	brpl	.+8      	; 0x1362 <__itoa_ncheck+0x12>
    135a:	bd e2       	ldi	r27, 0x2D	; 45
    135c:	90 95       	com	r25
    135e:	81 95       	neg	r24
    1360:	9f 4f       	sbci	r25, 0xFF	; 255
    1362:	0c 94 b4 09 	jmp	0x1368	; 0x1368 <__utoa_common>

00001366 <__utoa_ncheck>:
    1366:	bb 27       	eor	r27, r27

00001368 <__utoa_common>:
    1368:	fb 01       	movw	r30, r22
    136a:	55 27       	eor	r21, r21
    136c:	aa 27       	eor	r26, r26
    136e:	88 0f       	add	r24, r24
    1370:	99 1f       	adc	r25, r25
    1372:	aa 1f       	adc	r26, r26
    1374:	a4 17       	cp	r26, r20
    1376:	10 f0       	brcs	.+4      	; 0x137c <__utoa_common+0x14>
    1378:	a4 1b       	sub	r26, r20
    137a:	83 95       	inc	r24
    137c:	50 51       	subi	r21, 0x10	; 16
    137e:	b9 f7       	brne	.-18     	; 0x136e <__utoa_common+0x6>
    1380:	a0 5d       	subi	r26, 0xD0	; 208
    1382:	aa 33       	cpi	r26, 0x3A	; 58
    1384:	08 f0       	brcs	.+2      	; 0x1388 <__utoa_common+0x20>
    1386:	a9 5d       	subi	r26, 0xD9	; 217
    1388:	a1 93       	st	Z+, r26
    138a:	00 97       	sbiw	r24, 0x00	; 0
    138c:	79 f7       	brne	.-34     	; 0x136c <__utoa_common+0x4>
    138e:	b1 11       	cpse	r27, r1
    1390:	b1 93       	st	Z+, r27
    1392:	11 92       	st	Z+, r1
    1394:	cb 01       	movw	r24, r22
    1396:	0c 94 cd 09 	jmp	0x139a	; 0x139a <strrev>

0000139a <strrev>:
    139a:	dc 01       	movw	r26, r24
    139c:	fc 01       	movw	r30, r24
    139e:	67 2f       	mov	r22, r23
    13a0:	71 91       	ld	r23, Z+
    13a2:	77 23       	and	r23, r23
    13a4:	e1 f7       	brne	.-8      	; 0x139e <strrev+0x4>
    13a6:	32 97       	sbiw	r30, 0x02	; 2
    13a8:	04 c0       	rjmp	.+8      	; 0x13b2 <strrev+0x18>
    13aa:	7c 91       	ld	r23, X
    13ac:	6d 93       	st	X+, r22
    13ae:	70 83       	st	Z, r23
    13b0:	62 91       	ld	r22, -Z
    13b2:	ae 17       	cp	r26, r30
    13b4:	bf 07       	cpc	r27, r31
    13b6:	c8 f3       	brcs	.-14     	; 0x13aa <strrev+0x10>
    13b8:	08 95       	ret

000013ba <_exit>:
    13ba:	f8 94       	cli

000013bc <__stop_program>:
    13bc:	ff cf       	rjmp	.-2      	; 0x13bc <__stop_program>
