
Winch Controller.elf:     file format elf32-avr

Sections:
Idx Name          Size      VMA       LMA       File off  Algn
  0 .data         00000020  00800100  00001dc4  00001e78  2**0
                  CONTENTS, ALLOC, LOAD, DATA
  1 .text         00001dc4  00000000  00000000  000000b4  2**1
                  CONTENTS, ALLOC, LOAD, READONLY, CODE
  2 .bss          00000197  00800120  00800120  00001e98  2**0
                  ALLOC
  3 .eeprom       00000028  00810000  00810000  00001e98  2**0
                  CONTENTS, ALLOC, LOAD, DATA
  4 .comment      00000030  00000000  00000000  00001ec0  2**0
                  CONTENTS, READONLY
  5 .note.gnu.avr.deviceinfo 00000040  00000000  00000000  00001ef0  2**2
                  CONTENTS, READONLY
  6 .debug_aranges 00000208  00000000  00000000  00001f30  2**0
                  CONTENTS, READONLY, DEBUGGING
  7 .debug_info   0000214e  00000000  00000000  00002138  2**0
                  CONTENTS, READONLY, DEBUGGING
  8 .debug_abbrev 00000ab9  00000000  00000000  00004286  2**0
                  CONTENTS, READONLY, DEBUGGING
  9 .debug_line   00001c62  00000000  00000000  00004d3f  2**0
                  CONTENTS, READONLY, DEBUGGING
 10 .debug_frame  00000598  00000000  00000000  000069a4  2**2
                  CONTENTS, READONLY, DEBUGGING
 11 .debug_str    000009d9  00000000  00000000  00006f3c  2**0
                  CONTENTS, READONLY, DEBUGGING
 12 .debug_loc    00001054  00000000  00000000  00007915  2**0
                  CONTENTS, READONLY, DEBUGGING
 13 .debug_ranges 000001b0  00000000  00000000  00008969  2**0
                  CONTENTS, READONLY, DEBUGGING

Disassembly of section .text:

00000000 <__vectors>:
       0:	0c 94 bc 00 	jmp	0x178	; 0x178 <__ctors_end>
       4:	0c 94 d9 00 	jmp	0x1b2	; 0x1b2 <__bad_interrupt>
       8:	0c 94 d9 00 	jmp	0x1b2	; 0x1b2 <__bad_interrupt>
       c:	0c 94 d9 00 	jmp	0x1b2	; 0x1b2 <__bad_interrupt>
      10:	0c 94 d9 00 	jmp	0x1b2	; 0x1b2 <__bad_interrupt>
      14:	0c 94 91 0c 	jmp	0x1922	; 0x1922 <__vector_5>
      18:	0c 94 d9 00 	jmp	0x1b2	; 0x1b2 <__bad_interrupt>
      1c:	0c 94 d9 00 	jmp	0x1b2	; 0x1b2 <__bad_interrupt>
      20:	0c 94 d9 00 	jmp	0x1b2	; 0x1b2 <__bad_interrupt>
      24:	0c 94 d9 00 	jmp	0x1b2	; 0x1b2 <__bad_interrupt>
      28:	0c 94 d9 00 	jmp	0x1b2	; 0x1b2 <__bad_interrupt>
      2c:	0c 94 d9 00 	jmp	0x1b2	; 0x1b2 <__bad_interrupt>
      30:	0c 94 15 0d 	jmp	0x1a2a	; 0x1a2a <__vector_12>
      34:	0c 94 1f 0d 	jmp	0x1a3e	; 0x1a3e <__vector_13>
      38:	0c 94 0b 0d 	jmp	0x1a16	; 0x1a16 <__vector_14>
      3c:	0c 94 f4 0c 	jmp	0x19e8	; 0x19e8 <__vector_15>
      40:	0c 94 d9 00 	jmp	0x1b2	; 0x1b2 <__bad_interrupt>
      44:	0c 94 d9 00 	jmp	0x1b2	; 0x1b2 <__bad_interrupt>
      48:	0c 94 8b 07 	jmp	0xf16	; 0xf16 <__vector_18>
      4c:	0c 94 d9 00 	jmp	0x1b2	; 0x1b2 <__bad_interrupt>
      50:	0c 94 29 0d 	jmp	0x1a52	; 0x1a52 <__vector_20>
      54:	0c 94 d9 00 	jmp	0x1b2	; 0x1b2 <__bad_interrupt>
      58:	0c 94 5c 05 	jmp	0xab8	; 0xab8 <__vector_22>
      5c:	0c 94 a7 05 	jmp	0xb4e	; 0xb4e <__vector_23>
      60:	0c 94 d9 00 	jmp	0x1b2	; 0x1b2 <__bad_interrupt>
      64:	0c 94 d9 00 	jmp	0x1b2	; 0x1b2 <__bad_interrupt>
      68:	0c 94 d9 00 	jmp	0x1b2	; 0x1b2 <__bad_interrupt>
      6c:	0c 94 c9 01 	jmp	0x392	; 0x392 <__vector_27>
      70:	0c 94 d9 00 	jmp	0x1b2	; 0x1b2 <__bad_interrupt>
      74:	0c 94 d9 00 	jmp	0x1b2	; 0x1b2 <__bad_interrupt>
      78:	0c 94 d9 00 	jmp	0x1b2	; 0x1b2 <__bad_interrupt>
      7c:	5c 08       	sbc	r5, r12
      7e:	8a 08       	sbc	r8, r10
      80:	c3 08       	sbc	r12, r3
      82:	e7 08       	sbc	r14, r7
      84:	0b 09       	sbc	r16, r11
      86:	27 09       	sbc	r18, r7
      88:	60 09       	sbc	r22, r0
      8a:	89 09       	sbc	r24, r9
      8c:	14 0a       	sbc	r1, r20
      8e:	37 0a       	sbc	r3, r23
      90:	5a 0a       	sbc	r5, r26
      92:	7d 0a       	sbc	r7, r29
      94:	99 0a       	sbc	r9, r25
      96:	da 0a       	sbc	r13, r26
      98:	03 0b       	sbc	r16, r19

0000009a <__trampolines_end>:
      9a:	45 45       	sbci	r20, 0x55	; 85
      9c:	50 52       	subi	r21, 0x20	; 32
      9e:	4f 4d       	sbci	r20, 0xDF	; 223
      a0:	20 77       	andi	r18, 0x70	; 112
      a2:	72 69       	ori	r23, 0x92	; 146
      a4:	74 65       	ori	r23, 0x54	; 84
      a6:	20 66       	ori	r18, 0x60	; 96
      a8:	61 69       	ori	r22, 0x91	; 145
      aa:	6c 65       	ori	r22, 0x5C	; 92
      ac:	64 0a       	sbc	r6, r20
	...

000000af <__c.2059>:
      af:	45 45 50 52 4f 4d 20 77 72 69 74 65 20 43 52 43     EEPROM write CRC
      bf:	20 6d 69 73 73 6d 61 74 63 68 20 2d 20 72 65 74      missmatch - ret
      cf:	72 69 6e 67 0a 00                                   ring..

000000d5 <__c.2057>:
      d5:	45 45 50 52 4f 4d 20 77 72 69 74 65 20 6f 6b 0a     EEPROM write ok.
	...

000000e6 <__c.2040>:
      e6:	45 45 50 52 4f 4d 20 72 65 61 64 20 66 61 69 6c     EEPROM read fail
      f6:	65 64 0a 00                                         ed..

000000fa <__c.2035>:
      fa:	45 45 50 52 4f 4d 20 72 65 61 64 20 43 52 43 20     EEPROM read CRC 
     10a:	6d 69 73 73 6d 61 74 63 68 20 2d 20 72 65 74 72     missmatch - retr
     11a:	69 6e 67 0a 00                                      ing..

0000011f <__c.2033>:
     11f:	45 45 50 52 4f 4d 20 72 65 61 64 20 6f 6b 0a 00     EEPROM read ok..

0000012f <__c.2353>:
     12f:	4c 6f 61 64 69 6e 67 20 64 65 66 61 75 6c 74 20     Loading default 
     13f:	76 61 6c 75 65 73 00                                values.

00000146 <__c.2351>:
     146:	0a 00                                               ..

00000148 <__c.2349>:
     148:	4d 61 72 20 31 39 20 32 30 31 37 00                 Mar 19 2017.

00000154 <__c.2347>:
     154:	57 69 6e 63 68 20 43 6f 6e 74 72 6f 6c 6c 65 72     Winch Controller
     164:	0a 43 6f 6d 70 69 6c 61 74 69 6f 6e 20 64 61 74     .Compilation dat
     174:	65 20 00 00                                         e ..

00000178 <__ctors_end>:
     178:	11 24       	eor	r1, r1
     17a:	1f be       	out	0x3f, r1	; 63
     17c:	cf ef       	ldi	r28, 0xFF	; 255
     17e:	d8 e0       	ldi	r29, 0x08	; 8
     180:	de bf       	out	0x3e, r29	; 62
     182:	cd bf       	out	0x3d, r28	; 61

00000184 <__do_copy_data>:
     184:	11 e0       	ldi	r17, 0x01	; 1
     186:	a0 e0       	ldi	r26, 0x00	; 0
     188:	b1 e0       	ldi	r27, 0x01	; 1
     18a:	e4 ec       	ldi	r30, 0xC4	; 196
     18c:	fd e1       	ldi	r31, 0x1D	; 29
     18e:	02 c0       	rjmp	.+4      	; 0x194 <__do_copy_data+0x10>
     190:	05 90       	lpm	r0, Z+
     192:	0d 92       	st	X+, r0
     194:	a0 32       	cpi	r26, 0x20	; 32
     196:	b1 07       	cpc	r27, r17
     198:	d9 f7       	brne	.-10     	; 0x190 <__do_copy_data+0xc>

0000019a <__do_clear_bss>:
     19a:	22 e0       	ldi	r18, 0x02	; 2
     19c:	a0 e2       	ldi	r26, 0x20	; 32
     19e:	b1 e0       	ldi	r27, 0x01	; 1
     1a0:	01 c0       	rjmp	.+2      	; 0x1a4 <.do_clear_bss_start>

000001a2 <.do_clear_bss_loop>:
     1a2:	1d 92       	st	X+, r1

000001a4 <.do_clear_bss_start>:
     1a4:	a7 3b       	cpi	r26, 0xB7	; 183
     1a6:	b2 07       	cpc	r27, r18
     1a8:	e1 f7       	brne	.-8      	; 0x1a2 <.do_clear_bss_loop>
     1aa:	0e 94 f6 04 	call	0x9ec	; 0x9ec <main>
     1ae:	0c 94 e0 0e 	jmp	0x1dc0	; 0x1dc0 <_exit>

000001b2 <__bad_interrupt>:
     1b2:	0c 94 00 00 	jmp	0	; 0x0 <__vectors>

000001b6 <ADC_switch>:
	
	adc_ready_to_send = 0;
}

void ADC_switch(uint8_t channel){
		ADMUX = (ADMUX & 0xF0) | (channel & ADMUX_MASK);
     1b6:	ec e7       	ldi	r30, 0x7C	; 124
     1b8:	f0 e0       	ldi	r31, 0x00	; 0
     1ba:	90 81       	ld	r25, Z
     1bc:	8f 70       	andi	r24, 0x0F	; 15
     1be:	90 7f       	andi	r25, 0xF0	; 240
     1c0:	89 2b       	or	r24, r25
     1c2:	80 83       	st	Z, r24
     1c4:	08 95       	ret

000001c6 <ADC_init>:

void ADC_init(void){
	int8_t c;
	
	//Wybór Ÿród³a wyzwalania - 
	ADCSRB |= (1<<ADHSM) | (1<<AREFEN)| (0<<ADTS3) | (0<<ADTS2) | (0<<ADTS1) | (0<<ADTS0);
     1c6:	eb e7       	ldi	r30, 0x7B	; 123
     1c8:	f0 e0       	ldi	r31, 0x00	; 0
     1ca:	80 81       	ld	r24, Z
     1cc:	80 6a       	ori	r24, 0xA0	; 160
     1ce:	80 83       	st	Z, r24
	// ADEN - aktywowanie ADC
	// ADATE - zewnêtrzne Ÿród³o wyzwalania
	// ADPSX - ustawienie preskalera 0 1 1 - clk/8 ->2Mhz
	// ADIE - aktywowanie przerwania
	// ADSC - start pomiaru
	ADCSRA |= (1<<ADEN) | (1<<ADIE) | (0<<ADATE) | (1<<ADPS2) | (1<<ADPS1) | (1<<ADPS0);
     1d0:	ea e7       	ldi	r30, 0x7A	; 122
     1d2:	f0 e0       	ldi	r31, 0x00	; 0
     1d4:	80 81       	ld	r24, Z
     1d6:	8f 68       	ori	r24, 0x8F	; 143
     1d8:	80 83       	st	Z, r24
			
	// REFS1	REFS0
	// 0		0	-nap odniesienia z VREF
	// 1		1	-nap odniesienia z wew referencji
	// MUX2..0  -wybór wejscia przetwornika			
	ADMUX |= (0<<REFS1) | (1<<REFS0);
     1da:	ec e7       	ldi	r30, 0x7C	; 124
     1dc:	f0 e0       	ldi	r31, 0x00	; 0
     1de:	80 81       	ld	r24, Z
     1e0:	80 64       	ori	r24, 0x40	; 64
     1e2:	80 83       	st	Z, r24
	
	// init adc state struct
	adc_state.active_channel  = 0;
     1e4:	e7 ee       	ldi	r30, 0xE7	; 231
     1e6:	f1 e0       	ldi	r31, 0x01	; 1
     1e8:	11 82       	std	Z+1, r1	; 0x01
	adc_state.buffor_position = 0;
     1ea:	12 82       	std	Z+2, r1	; 0x02
	
	//translate index to ADC channel num
	channel_idx_to_num[ADC_CHANNEL_BOARD_POSITION]   = ADC_CHANNEL_BOARD_POSITION_NUM;
     1ec:	a8 ed       	ldi	r26, 0xD8	; 216
     1ee:	b1 e0       	ldi	r27, 0x01	; 1
     1f0:	84 e0       	ldi	r24, 0x04	; 4
     1f2:	12 96       	adiw	r26, 0x02	; 2
     1f4:	8c 93       	st	X, r24
     1f6:	12 97       	sbiw	r26, 0x02	; 2
	channel_idx_to_num[ADC_CHANNEL_VOLTAGE] = ADC_CHANNEL_VOLTAGE_NUM;
     1f8:	89 e0       	ldi	r24, 0x09	; 9
     1fa:	11 96       	adiw	r26, 0x01	; 1
     1fc:	8c 93       	st	X, r24
     1fe:	11 97       	sbiw	r26, 0x01	; 1
	channel_idx_to_num[ADC_CHANNEL_CURRENT] = ADC_CHANNEL_CURRENT_NUM;
     200:	8a e0       	ldi	r24, 0x0A	; 10
     202:	8c 93       	st	X, r24
	
	// init sum
	for( c = 0 ; c < ADC_MAX_CHANNEL ; c++ ){
		adc_state.sum[c] = 0;
     204:	10 92 45 02 	sts	0x0245, r1	; 0x800245 <adc_state+0x5e>
     208:	10 92 44 02 	sts	0x0244, r1	; 0x800244 <adc_state+0x5d>
     20c:	10 92 47 02 	sts	0x0247, r1	; 0x800247 <adc_state+0x60>
     210:	10 92 46 02 	sts	0x0246, r1	; 0x800246 <adc_state+0x5f>
     214:	10 92 49 02 	sts	0x0249, r1	; 0x800249 <adc_state+0x62>
     218:	10 92 48 02 	sts	0x0248, r1	; 0x800248 <adc_state+0x61>
	}

	// trun on first channel	
	ADC_switch(channel_idx_to_num[adc_state.active_channel]);
     21c:	e1 81       	ldd	r30, Z+1	; 0x01
     21e:	f0 e0       	ldi	r31, 0x00	; 0
     220:	e8 52       	subi	r30, 0x28	; 40
     222:	fe 4f       	sbci	r31, 0xFE	; 254
     224:	80 81       	ld	r24, Z
     226:	0e 94 db 00 	call	0x1b6	; 0x1b6 <ADC_switch>
	
	adc_ready_to_send = 0;
     22a:	10 92 28 01 	sts	0x0128, r1	; 0x800128 <adc_ready_to_send>
     22e:	08 95       	ret

00000230 <ADC_start_conversion>:
void ADC_switch(uint8_t channel){
		ADMUX = (ADMUX & 0xF0) | (channel & ADMUX_MASK);
}

void ADC_start_conversion(){
	ADCSRA |= (1<<ADSC);
     230:	ea e7       	ldi	r30, 0x7A	; 122
     232:	f0 e0       	ldi	r31, 0x00	; 0
     234:	80 81       	ld	r24, Z
     236:	80 64       	ori	r24, 0x40	; 64
     238:	80 83       	st	Z, r24
     23a:	08 95       	ret

0000023c <ADC_task>:
}

// ADC task function, called every loop in main_loop
void ADC_task(void){
     23c:	ef 92       	push	r14
     23e:	ff 92       	push	r15
     240:	0f 93       	push	r16
     242:	1f 93       	push	r17
     244:	cf 93       	push	r28
     246:	df 93       	push	r29
	/* if we have new results */
	if( HAS_FLAG(adc_state.flags, ADC_FLAG_CONV_COMPLETED)) {
     248:	80 91 e7 01 	lds	r24, 0x01E7	; 0x8001e7 <adc_state>
     24c:	80 ff       	sbrs	r24, 0
     24e:	9a c0       	rjmp	.+308    	; 0x384 <ADC_task+0x148>
		adc_results.raw_current = adc_state.sum[ADC_CHANNEL_CURRENT] / ADC_SAMPELS;
     250:	80 91 44 02 	lds	r24, 0x0244	; 0x800244 <adc_state+0x5d>
     254:	90 91 45 02 	lds	r25, 0x0245	; 0x800245 <adc_state+0x5e>
     258:	2f e0       	ldi	r18, 0x0F	; 15
     25a:	30 e0       	ldi	r19, 0x00	; 0
     25c:	b9 01       	movw	r22, r18
     25e:	0e 94 2b 0e 	call	0x1c56	; 0x1c56 <__divmodhi4>
     262:	8b 01       	movw	r16, r22
     264:	cb ed       	ldi	r28, 0xDB	; 219
     266:	d1 e0       	ldi	r29, 0x01	; 1
     268:	79 83       	std	Y+1, r23	; 0x01
     26a:	68 83       	st	Y, r22
		adc_results.raw_voltage = adc_state.sum[ADC_CHANNEL_VOLTAGE] / ADC_SAMPELS;
     26c:	80 91 46 02 	lds	r24, 0x0246	; 0x800246 <adc_state+0x5f>
     270:	90 91 47 02 	lds	r25, 0x0247	; 0x800247 <adc_state+0x60>
     274:	b9 01       	movw	r22, r18
     276:	0e 94 2b 0e 	call	0x1c56	; 0x1c56 <__divmodhi4>
     27a:	fb 01       	movw	r30, r22
     27c:	7b 83       	std	Y+3, r23	; 0x03
     27e:	6a 83       	std	Y+2, r22	; 0x02
		adc_results.raw_board_position   = adc_state.sum[ADC_CHANNEL_BOARD_POSITION]   / ADC_SAMPELS;		
     280:	80 91 48 02 	lds	r24, 0x0248	; 0x800248 <adc_state+0x61>
     284:	90 91 49 02 	lds	r25, 0x0249	; 0x800249 <adc_state+0x62>
     288:	b9 01       	movw	r22, r18
     28a:	0e 94 2b 0e 	call	0x1c56	; 0x1c56 <__divmodhi4>
     28e:	7b 01       	movw	r14, r22
		
		/* voltage result */
		
		adc_results.voltage = (((uint32_t)adc_results.raw_voltage * non_volatile_data.adc_voltage_scale) / ADC_RAW_MAX_VAL);
     290:	ca e4       	ldi	r28, 0x4A	; 74
     292:	d2 e0       	ldi	r29, 0x02	; 2
     294:	2e 85       	ldd	r18, Y+14	; 0x0e
     296:	3f 85       	ldd	r19, Y+15	; 0x0f
     298:	df 01       	movw	r26, r30
     29a:	0e 94 9d 0e 	call	0x1d3a	; 0x1d3a <__usmulhisi3>
     29e:	2f ef       	ldi	r18, 0xFF	; 255
     2a0:	33 e0       	ldi	r19, 0x03	; 3
     2a2:	40 e0       	ldi	r20, 0x00	; 0
     2a4:	50 e0       	ldi	r21, 0x00	; 0
     2a6:	0e 94 3f 0e 	call	0x1c7e	; 0x1c7e <__udivmodsi4>
		if(non_volatile_data.adc_voltage_offset < 0 && adc_results.voltage < -non_volatile_data.adc_voltage_offset){
     2aa:	8c 85       	ldd	r24, Y+12	; 0x0c
     2ac:	9d 85       	ldd	r25, Y+13	; 0x0d
     2ae:	99 23       	and	r25, r25
     2b0:	74 f4       	brge	.+28     	; 0x2ce <ADC_task+0x92>
     2b2:	ee 27       	eor	r30, r30
     2b4:	ff 27       	eor	r31, r31
     2b6:	e8 1b       	sub	r30, r24
     2b8:	f9 0b       	sbc	r31, r25
     2ba:	2e 17       	cp	r18, r30
     2bc:	3f 07       	cpc	r19, r31
     2be:	3c f4       	brge	.+14     	; 0x2ce <ADC_task+0x92>
			adc_results.voltage += non_volatile_data.adc_voltage_offset;
     2c0:	28 0f       	add	r18, r24
     2c2:	39 1f       	adc	r19, r25
     2c4:	30 93 e4 01 	sts	0x01E4, r19	; 0x8001e4 <adc_results+0x9>
     2c8:	20 93 e3 01 	sts	0x01E3, r18	; 0x8001e3 <adc_results+0x8>
     2cc:	04 c0       	rjmp	.+8      	; 0x2d6 <ADC_task+0x9a>
		}
		else {
			adc_results.voltage = 0;
     2ce:	10 92 e4 01 	sts	0x01E4, r1	; 0x8001e4 <adc_results+0x9>
     2d2:	10 92 e3 01 	sts	0x01E3, r1	; 0x8001e3 <adc_results+0x8>
		}
		
		/* current result */
		adc_results.current = (((uint32_t)adc_results.raw_current * non_volatile_data.adc_current_scale) / ADC_RAW_MAX_VAL);
     2d6:	ca e4       	ldi	r28, 0x4A	; 74
     2d8:	d2 e0       	ldi	r29, 0x02	; 2
     2da:	2a 85       	ldd	r18, Y+10	; 0x0a
     2dc:	3b 85       	ldd	r19, Y+11	; 0x0b
     2de:	d8 01       	movw	r26, r16
     2e0:	0e 94 9d 0e 	call	0x1d3a	; 0x1d3a <__usmulhisi3>
     2e4:	2f ef       	ldi	r18, 0xFF	; 255
     2e6:	33 e0       	ldi	r19, 0x03	; 3
     2e8:	40 e0       	ldi	r20, 0x00	; 0
     2ea:	50 e0       	ldi	r21, 0x00	; 0
     2ec:	0e 94 3f 0e 	call	0x1c7e	; 0x1c7e <__udivmodsi4>
		if(non_volatile_data.adc_current_offset < 0 && adc_results.current < -non_volatile_data.adc_current_offset){
     2f0:	88 85       	ldd	r24, Y+8	; 0x08
     2f2:	99 85       	ldd	r25, Y+9	; 0x09
     2f4:	99 23       	and	r25, r25
     2f6:	74 f4       	brge	.+28     	; 0x314 <ADC_task+0xd8>
     2f8:	ee 27       	eor	r30, r30
     2fa:	ff 27       	eor	r31, r31
     2fc:	e8 1b       	sub	r30, r24
     2fe:	f9 0b       	sbc	r31, r25
     300:	2e 17       	cp	r18, r30
     302:	3f 07       	cpc	r19, r31
     304:	3c f4       	brge	.+14     	; 0x314 <ADC_task+0xd8>
			adc_results.current += non_volatile_data.adc_current_offset;
     306:	28 0f       	add	r18, r24
     308:	39 1f       	adc	r19, r25
     30a:	30 93 e2 01 	sts	0x01E2, r19	; 0x8001e2 <adc_results+0x7>
     30e:	20 93 e1 01 	sts	0x01E1, r18	; 0x8001e1 <adc_results+0x6>
     312:	04 c0       	rjmp	.+8      	; 0x31c <ADC_task+0xe0>
		}
		else {
			adc_results.current = 0;
     314:	10 92 e2 01 	sts	0x01E2, r1	; 0x8001e2 <adc_results+0x7>
     318:	10 92 e1 01 	sts	0x01E1, r1	; 0x8001e1 <adc_results+0x6>
		}
		
		/*board position results*/
		adc_results.raw_board_position = (((uint32_t)adc_results.raw_board_position * non_volatile_data.adc_board_position_scale) / ADC_RAW_MAX_VAL) + non_volatile_data.adc_board_position_offset;
     31c:	ca e4       	ldi	r28, 0x4A	; 74
     31e:	d2 e0       	ldi	r29, 0x02	; 2
     320:	aa 81       	ldd	r26, Y+2	; 0x02
     322:	bb 81       	ldd	r27, Y+3	; 0x03
     324:	97 01       	movw	r18, r14
     326:	0e 94 86 0e 	call	0x1d0c	; 0x1d0c <__mulhisi3>
     32a:	2f ef       	ldi	r18, 0xFF	; 255
     32c:	33 e0       	ldi	r19, 0x03	; 3
     32e:	40 e0       	ldi	r20, 0x00	; 0
     330:	50 e0       	ldi	r21, 0x00	; 0
     332:	0e 94 3f 0e 	call	0x1c7e	; 0x1c7e <__udivmodsi4>
     336:	88 81       	ld	r24, Y
     338:	99 81       	ldd	r25, Y+1	; 0x01
     33a:	28 0f       	add	r18, r24
     33c:	39 1f       	adc	r19, r25
     33e:	30 93 e0 01 	sts	0x01E0, r19	; 0x8001e0 <adc_results+0x5>
     342:	20 93 df 01 	sts	0x01DF, r18	; 0x8001df <adc_results+0x4>
		if(adc_results.raw_board_position > non_volatile_data.adc_board_position_max){
     346:	8c 81       	ldd	r24, Y+4	; 0x04
     348:	9d 81       	ldd	r25, Y+5	; 0x05
     34a:	82 17       	cp	r24, r18
     34c:	93 07       	cpc	r25, r19
     34e:	2c f4       	brge	.+10     	; 0x35a <ADC_task+0x11e>
			adc_results.raw_board_position = non_volatile_data.adc_board_position_max;
     350:	90 93 e0 01 	sts	0x01E0, r25	; 0x8001e0 <adc_results+0x5>
     354:	80 93 df 01 	sts	0x01DF, r24	; 0x8001df <adc_results+0x4>
     358:	0b c0       	rjmp	.+22     	; 0x370 <ADC_task+0x134>
		}
		else if(adc_results.raw_board_position < non_volatile_data.adc_board_position_min){
     35a:	80 91 50 02 	lds	r24, 0x0250	; 0x800250 <non_volatile_data+0x6>
     35e:	90 91 51 02 	lds	r25, 0x0251	; 0x800251 <non_volatile_data+0x7>
     362:	28 17       	cp	r18, r24
     364:	39 07       	cpc	r19, r25
     366:	24 f4       	brge	.+8      	; 0x370 <ADC_task+0x134>
			adc_results.raw_board_position = non_volatile_data.adc_board_position_min;
     368:	90 93 e0 01 	sts	0x01E0, r25	; 0x8001e0 <adc_results+0x5>
     36c:	80 93 df 01 	sts	0x01DF, r24	; 0x8001df <adc_results+0x4>
		}
			
		adc_ready_to_send++;
     370:	80 91 28 01 	lds	r24, 0x0128	; 0x800128 <adc_ready_to_send>
     374:	8f 5f       	subi	r24, 0xFF	; 255
     376:	80 93 28 01 	sts	0x0128, r24	; 0x800128 <adc_ready_to_send>
		/* clearing flag for conversion resulsts */
		CLEAR_FLAG(adc_state.flags, ADC_FLAG_CONV_COMPLETED);
     37a:	e7 ee       	ldi	r30, 0xE7	; 231
     37c:	f1 e0       	ldi	r31, 0x01	; 1
     37e:	80 81       	ld	r24, Z
     380:	8e 7f       	andi	r24, 0xFE	; 254
     382:	80 83       	st	Z, r24
	}
};
     384:	df 91       	pop	r29
     386:	cf 91       	pop	r28
     388:	1f 91       	pop	r17
     38a:	0f 91       	pop	r16
     38c:	ff 90       	pop	r15
     38e:	ef 90       	pop	r14
     390:	08 95       	ret

00000392 <__vector_27>:

// ADC conversion completed signal
SIGNAL(ADC_vect){
     392:	1f 92       	push	r1
     394:	0f 92       	push	r0
     396:	0f b6       	in	r0, 0x3f	; 63
     398:	0f 92       	push	r0
     39a:	11 24       	eor	r1, r1
     39c:	2f 93       	push	r18
     39e:	3f 93       	push	r19
     3a0:	4f 93       	push	r20
     3a2:	5f 93       	push	r21
     3a4:	6f 93       	push	r22
     3a6:	7f 93       	push	r23
     3a8:	8f 93       	push	r24
     3aa:	9f 93       	push	r25
     3ac:	af 93       	push	r26
     3ae:	bf 93       	push	r27
     3b0:	ef 93       	push	r30
     3b2:	ff 93       	push	r31
	/* save result */
	
	/* removing old result from the sum */
	if( HAS_FLAG(adc_state.flags, ADC_FLAG_HAS_FULL_BUFF) ) {
     3b4:	80 91 e7 01 	lds	r24, 0x01E7	; 0x8001e7 <adc_state>
     3b8:	81 ff       	sbrs	r24, 1
     3ba:	21 c0       	rjmp	.+66     	; 0x3fe <__vector_27+0x6c>
		adc_state.sum[adc_state.active_channel] -= adc_state.buffor[adc_state.active_channel][adc_state.buffor_position];
     3bc:	a7 ee       	ldi	r26, 0xE7	; 231
     3be:	b1 e0       	ldi	r27, 0x01	; 1
     3c0:	11 96       	adiw	r26, 0x01	; 1
     3c2:	ec 91       	ld	r30, X
     3c4:	11 97       	sbiw	r26, 0x01	; 1
     3c6:	12 96       	adiw	r26, 0x02	; 2
     3c8:	8c 91       	ld	r24, X
     3ca:	12 97       	sbiw	r26, 0x02	; 2
     3cc:	9f e0       	ldi	r25, 0x0F	; 15
     3ce:	e9 9f       	mul	r30, r25
     3d0:	f0 01       	movw	r30, r0
     3d2:	11 24       	eor	r1, r1
     3d4:	e8 0f       	add	r30, r24
     3d6:	f1 1d       	adc	r31, r1
     3d8:	ee 0f       	add	r30, r30
     3da:	ff 1f       	adc	r31, r31
     3dc:	e9 51       	subi	r30, 0x19	; 25
     3de:	fe 4f       	sbci	r31, 0xFE	; 254
     3e0:	23 81       	ldd	r18, Z+3	; 0x03
     3e2:	34 81       	ldd	r19, Z+4	; 0x04
     3e4:	11 96       	adiw	r26, 0x01	; 1
     3e6:	ec 91       	ld	r30, X
     3e8:	f0 e0       	ldi	r31, 0x00	; 0
     3ea:	ee 0f       	add	r30, r30
     3ec:	ff 1f       	adc	r31, r31
     3ee:	ec 5b       	subi	r30, 0xBC	; 188
     3f0:	fd 4f       	sbci	r31, 0xFD	; 253
     3f2:	80 81       	ld	r24, Z
     3f4:	91 81       	ldd	r25, Z+1	; 0x01
     3f6:	82 1b       	sub	r24, r18
     3f8:	93 0b       	sbc	r25, r19
     3fa:	91 83       	std	Z+1, r25	; 0x01
     3fc:	80 83       	st	Z, r24
	}
	/* putting new result to the buffor */
	adc_state.buffor[adc_state.active_channel][adc_state.buffor_position] = ADC;
     3fe:	a7 ee       	ldi	r26, 0xE7	; 231
     400:	b1 e0       	ldi	r27, 0x01	; 1
     402:	11 96       	adiw	r26, 0x01	; 1
     404:	ec 91       	ld	r30, X
     406:	11 97       	sbiw	r26, 0x01	; 1
     408:	12 96       	adiw	r26, 0x02	; 2
     40a:	9c 91       	ld	r25, X
     40c:	12 97       	sbiw	r26, 0x02	; 2
     40e:	20 91 78 00 	lds	r18, 0x0078	; 0x800078 <__TEXT_REGION_LENGTH__+0x7e0078>
     412:	30 91 79 00 	lds	r19, 0x0079	; 0x800079 <__TEXT_REGION_LENGTH__+0x7e0079>
     416:	8f e0       	ldi	r24, 0x0F	; 15
     418:	8e 9f       	mul	r24, r30
     41a:	f0 01       	movw	r30, r0
     41c:	11 24       	eor	r1, r1
     41e:	e9 0f       	add	r30, r25
     420:	f1 1d       	adc	r31, r1
     422:	ee 0f       	add	r30, r30
     424:	ff 1f       	adc	r31, r31
     426:	e9 51       	subi	r30, 0x19	; 25
     428:	fe 4f       	sbci	r31, 0xFE	; 254
     42a:	34 83       	std	Z+4, r19	; 0x04
     42c:	23 83       	std	Z+3, r18	; 0x03
	/* adding new result to sum */
	adc_state.sum[adc_state.active_channel] += adc_state.buffor[adc_state.active_channel][adc_state.buffor_position];
     42e:	11 96       	adiw	r26, 0x01	; 1
     430:	ec 91       	ld	r30, X
     432:	11 97       	sbiw	r26, 0x01	; 1
     434:	12 96       	adiw	r26, 0x02	; 2
     436:	9c 91       	ld	r25, X
     438:	12 97       	sbiw	r26, 0x02	; 2
     43a:	8e 9f       	mul	r24, r30
     43c:	f0 01       	movw	r30, r0
     43e:	11 24       	eor	r1, r1
     440:	e9 0f       	add	r30, r25
     442:	f1 1d       	adc	r31, r1
     444:	ee 0f       	add	r30, r30
     446:	ff 1f       	adc	r31, r31
     448:	e9 51       	subi	r30, 0x19	; 25
     44a:	fe 4f       	sbci	r31, 0xFE	; 254
     44c:	83 81       	ldd	r24, Z+3	; 0x03
     44e:	94 81       	ldd	r25, Z+4	; 0x04
     450:	11 96       	adiw	r26, 0x01	; 1
     452:	ec 91       	ld	r30, X
     454:	11 97       	sbiw	r26, 0x01	; 1
     456:	f0 e0       	ldi	r31, 0x00	; 0
     458:	ee 0f       	add	r30, r30
     45a:	ff 1f       	adc	r31, r31
     45c:	ec 5b       	subi	r30, 0xBC	; 188
     45e:	fd 4f       	sbci	r31, 0xFD	; 253
     460:	20 81       	ld	r18, Z
     462:	31 81       	ldd	r19, Z+1	; 0x01
     464:	82 0f       	add	r24, r18
     466:	93 1f       	adc	r25, r19
     468:	91 83       	std	Z+1, r25	; 0x01
     46a:	80 83       	st	Z, r24
	
	/* inc channel position counters */
	if( ++adc_state.active_channel == ADC_MAX_CHANNEL) {
     46c:	11 96       	adiw	r26, 0x01	; 1
     46e:	8c 91       	ld	r24, X
     470:	11 97       	sbiw	r26, 0x01	; 1
     472:	8f 5f       	subi	r24, 0xFF	; 255
     474:	11 96       	adiw	r26, 0x01	; 1
     476:	8c 93       	st	X, r24
     478:	11 97       	sbiw	r26, 0x01	; 1
     47a:	83 30       	cpi	r24, 0x03	; 3
     47c:	a1 f4       	brne	.+40     	; 0x4a6 <__FUSE_REGION_LENGTH__+0xa6>
		/* we checked all channels, starting from the begging */
		adc_state.active_channel = 0;
     47e:	fd 01       	movw	r30, r26
     480:	11 82       	std	Z+1, r1	; 0x01
		/* reseting buffer position */
		if( ++adc_state.buffor_position == ADC_SAMPELS ){
     482:	82 81       	ldd	r24, Z+2	; 0x02
     484:	8f 5f       	subi	r24, 0xFF	; 255
     486:	82 83       	std	Z+2, r24	; 0x02
     488:	8f 30       	cpi	r24, 0x0F	; 15
     48a:	21 f4       	brne	.+8      	; 0x494 <__FUSE_REGION_LENGTH__+0x94>
			/* we filled whole buffor, starting from the begging */
			adc_state.buffor_position = 0;
     48c:	12 82       	std	Z+2, r1	; 0x02
			// setting flag that buffor is full (you can read results)
			SET_FLAG(adc_state.flags, ADC_FLAG_HAS_FULL_BUFF);
     48e:	80 81       	ld	r24, Z
     490:	82 60       	ori	r24, 0x02	; 2
     492:	80 83       	st	Z, r24
		}
		/* setting flag that there is new result ready */
		if( HAS_FLAG(adc_state.flags, ADC_FLAG_HAS_FULL_BUFF) ) {
     494:	80 91 e7 01 	lds	r24, 0x01E7	; 0x8001e7 <adc_state>
     498:	81 ff       	sbrs	r24, 1
     49a:	05 c0       	rjmp	.+10     	; 0x4a6 <__FUSE_REGION_LENGTH__+0xa6>
			SET_FLAG(adc_state.flags, ADC_FLAG_CONV_COMPLETED);
     49c:	e7 ee       	ldi	r30, 0xE7	; 231
     49e:	f1 e0       	ldi	r31, 0x01	; 1
     4a0:	80 81       	ld	r24, Z
     4a2:	81 60       	ori	r24, 0x01	; 1
     4a4:	80 83       	st	Z, r24
		}
	}
	/* switching active channel */
	ADC_switch(channel_idx_to_num[adc_state.active_channel]);
     4a6:	e0 91 e8 01 	lds	r30, 0x01E8	; 0x8001e8 <adc_state+0x1>
     4aa:	f0 e0       	ldi	r31, 0x00	; 0
     4ac:	e8 52       	subi	r30, 0x28	; 40
     4ae:	fe 4f       	sbci	r31, 0xFE	; 254
     4b0:	80 81       	ld	r24, Z
     4b2:	0e 94 db 00 	call	0x1b6	; 0x1b6 <ADC_switch>
	/* starting conversion */
	ADC_start_conversion();	
     4b6:	0e 94 18 01 	call	0x230	; 0x230 <ADC_start_conversion>
};
     4ba:	ff 91       	pop	r31
     4bc:	ef 91       	pop	r30
     4be:	bf 91       	pop	r27
     4c0:	af 91       	pop	r26
     4c2:	9f 91       	pop	r25
     4c4:	8f 91       	pop	r24
     4c6:	7f 91       	pop	r23
     4c8:	6f 91       	pop	r22
     4ca:	5f 91       	pop	r21
     4cc:	4f 91       	pop	r20
     4ce:	3f 91       	pop	r19
     4d0:	2f 91       	pop	r18
     4d2:	0f 90       	pop	r0
     4d4:	0f be       	out	0x3f, r0	; 63
     4d6:	0f 90       	pop	r0
     4d8:	1f 90       	pop	r1
     4da:	18 95       	reti

000004dc <eeprom_read>:

struct eeprom_struct EEMEM eeprom_data;
struct eeprom_struct non_volatile_data;

uint8_t eeprom_read(void)
{
     4dc:	0f 93       	push	r16
     4de:	1f 93       	push	r17
     4e0:	cf 93       	push	r28
     4e2:	df 93       	push	r29
	uint16_t crc = 0xFFFF;
	uint8_t *ptr = (uint8_t *) &non_volatile_data; //wskaŸnik na struktur¹ rzutujemy na zmienn¹ jednobajtow¹ ¿eby móc siê przesuwaæ co bajt przy liczeniu CRC
	
	ATOMIC_BLOCK(ATOMIC_RESTORESTATE){
     4e4:	cf b7       	in	r28, 0x3f	; 63
    return 1;
}

static __inline__ uint8_t __iCliRetVal(void)
{
    cli();
     4e6:	f8 94       	cli
		eeprom_read_block(&non_volatile_data, &eeprom_data, sizeof(struct eeprom_struct));
     4e8:	48 e2       	ldi	r20, 0x28	; 40
     4ea:	50 e0       	ldi	r21, 0x00	; 0
     4ec:	60 e0       	ldi	r22, 0x00	; 0
     4ee:	70 e0       	ldi	r23, 0x00	; 0
     4f0:	8a e4       	ldi	r24, 0x4A	; 74
     4f2:	92 e0       	ldi	r25, 0x02	; 2
     4f4:	0e 94 b8 0e 	call	0x1d70	; 0x1d70 <eeprom_read_block>
    (void)__s;
}

static __inline__ void __iRestore(const  uint8_t *__s)
{
    SREG = *__s;
     4f8:	cf bf       	out	0x3f, r28	; 63
struct eeprom_struct non_volatile_data;

uint8_t eeprom_read(void)
{
	uint16_t crc = 0xFFFF;
	uint8_t *ptr = (uint8_t *) &non_volatile_data; //wskaŸnik na struktur¹ rzutujemy na zmienn¹ jednobajtow¹ ¿eby móc siê przesuwaæ co bajt przy liczeniu CRC
     4fa:	0a e4       	ldi	r16, 0x4A	; 74
     4fc:	12 e0       	ldi	r17, 0x02	; 2
struct eeprom_struct EEMEM eeprom_data;
struct eeprom_struct non_volatile_data;

uint8_t eeprom_read(void)
{
	uint16_t crc = 0xFFFF;
     4fe:	cf ef       	ldi	r28, 0xFF	; 255
     500:	df ef       	ldi	r29, 0xFF	; 255
     502:	2b c0       	rjmp	.+86     	; 0x55a <eeprom_read+0x7e>
		eeprom_read_block(&non_volatile_data, &eeprom_data, sizeof(struct eeprom_struct));
	}
	for(uint8_t i=0; i < EEPROM_READ_RETRIES ; i++){
		//liczymy crc z ca³ej struktury razem z crc które by³o zapisane, jeœli siê zgadza to wyliczone crc wyjdzie 0!
		for(uint8_t i=0; i < sizeof(non_volatile_data); i++){
			crc = _crc16_update(crc, *ptr++ );
     504:	81 91       	ld	r24, Z+
_crc16_update(uint16_t __crc, uint8_t __data)
{
	uint8_t __tmp;
	uint16_t __ret;

	__asm__ __volatile__ (
     506:	c8 27       	eor	r28, r24
     508:	8c 2f       	mov	r24, r28
     50a:	82 95       	swap	r24
     50c:	8c 27       	eor	r24, r28
     50e:	08 2e       	mov	r0, r24
     510:	86 95       	lsr	r24
     512:	86 95       	lsr	r24
     514:	80 25       	eor	r24, r0
     516:	08 2e       	mov	r0, r24
     518:	86 95       	lsr	r24
     51a:	80 25       	eor	r24, r0
     51c:	87 70       	andi	r24, 0x07	; 7
     51e:	0c 2e       	mov	r0, r28
     520:	cd 2f       	mov	r28, r29
     522:	86 95       	lsr	r24
     524:	07 94       	ror	r0
     526:	87 95       	ror	r24
     528:	d0 2d       	mov	r29, r0
     52a:	c8 27       	eor	r28, r24
     52c:	06 94       	lsr	r0
     52e:	87 95       	ror	r24
     530:	d0 25       	eor	r29, r0
     532:	c8 27       	eor	r28, r24
	ATOMIC_BLOCK(ATOMIC_RESTORESTATE){
		eeprom_read_block(&non_volatile_data, &eeprom_data, sizeof(struct eeprom_struct));
	}
	for(uint8_t i=0; i < EEPROM_READ_RETRIES ; i++){
		//liczymy crc z ca³ej struktury razem z crc które by³o zapisane, jeœli siê zgadza to wyliczone crc wyjdzie 0!
		for(uint8_t i=0; i < sizeof(non_volatile_data); i++){
     534:	e2 17       	cp	r30, r18
     536:	f3 07       	cpc	r31, r19
     538:	29 f7       	brne	.-54     	; 0x504 <eeprom_read+0x28>
			crc = _crc16_update(crc, *ptr++ );
		}
		//jeœli crc 0 to odczyt ok
		if(crc == 0){
     53a:	20 97       	sbiw	r28, 0x00	; 0
     53c:	31 f4       	brne	.+12     	; 0x54a <eeprom_read+0x6e>
			uart_puts_P("EEPROM read ok\n");
     53e:	8f e1       	ldi	r24, 0x1F	; 31
     540:	91 e0       	ldi	r25, 0x01	; 1
     542:	0e 94 19 0e 	call	0x1c32	; 0x1c32 <uart_puts_p>
			return EEPROM_OK;
     546:	80 e0       	ldi	r24, 0x00	; 0
     548:	12 c0       	rjmp	.+36     	; 0x56e <eeprom_read+0x92>
		}
		uart_puts_P("EEPROM read CRC missmatch - retring\n");
     54a:	8a ef       	ldi	r24, 0xFA	; 250
     54c:	90 e0       	ldi	r25, 0x00	; 0
     54e:	0e 94 19 0e 	call	0x1c32	; 0x1c32 <uart_puts_p>
	uint8_t *ptr = (uint8_t *) &non_volatile_data; //wskaŸnik na struktur¹ rzutujemy na zmienn¹ jednobajtow¹ ¿eby móc siê przesuwaæ co bajt przy liczeniu CRC
	
	ATOMIC_BLOCK(ATOMIC_RESTORESTATE){
		eeprom_read_block(&non_volatile_data, &eeprom_data, sizeof(struct eeprom_struct));
	}
	for(uint8_t i=0; i < EEPROM_READ_RETRIES ; i++){
     552:	82 e0       	ldi	r24, 0x02	; 2
     554:	02 3c       	cpi	r16, 0xC2	; 194
     556:	18 07       	cpc	r17, r24
     558:	29 f0       	breq	.+10     	; 0x564 <eeprom_read+0x88>
     55a:	f8 01       	movw	r30, r16
     55c:	08 5d       	subi	r16, 0xD8	; 216
     55e:	1f 4f       	sbci	r17, 0xFF	; 255
     560:	98 01       	movw	r18, r16
     562:	d0 cf       	rjmp	.-96     	; 0x504 <eeprom_read+0x28>
			uart_puts_P("EEPROM read ok\n");
			return EEPROM_OK;
		}
		uart_puts_P("EEPROM read CRC missmatch - retring\n");
	}
	uart_puts_P("EEPROM read failed\n");
     564:	86 ee       	ldi	r24, 0xE6	; 230
     566:	90 e0       	ldi	r25, 0x00	; 0
     568:	0e 94 19 0e 	call	0x1c32	; 0x1c32 <uart_puts_p>
	return EEPROM_ERROR;
     56c:	81 e0       	ldi	r24, 0x01	; 1
}
     56e:	df 91       	pop	r29
     570:	cf 91       	pop	r28
     572:	1f 91       	pop	r17
     574:	0f 91       	pop	r16
     576:	08 95       	ret

00000578 <eeprom_write>:

uint8_t eeprom_write(void)
{
     578:	cf 93       	push	r28
     57a:	df 93       	push	r29
     57c:	ea e4       	ldi	r30, 0x4A	; 74
     57e:	f2 e0       	ldi	r31, 0x02	; 2
     580:	40 e7       	ldi	r20, 0x70	; 112
     582:	52 e0       	ldi	r21, 0x02	; 2
	uint16_t crc = 0xFFFF;
     584:	2f ef       	ldi	r18, 0xFF	; 255
     586:	3f ef       	ldi	r19, 0xFF	; 255
	uint8_t *ptr = (uint8_t *) &non_volatile_data; //wskaŸnik na struktur¹ rzutujemy na zmienn¹ jednobajtow¹ ¿eby móc siê przesuwaæ co bajt przy liczeniu CRC
	
	//liczymy crc z ca³ej struktury bez dwóch ostatnich bajtów którymi jest suma crc
	for(uint8_t i=0; i < (sizeof(non_volatile_data)-2); i++){
		crc = _crc16_update(crc, *ptr++ );
     588:	81 91       	ld	r24, Z+
     58a:	28 27       	eor	r18, r24
     58c:	82 2f       	mov	r24, r18
     58e:	82 95       	swap	r24
     590:	82 27       	eor	r24, r18
     592:	08 2e       	mov	r0, r24
     594:	86 95       	lsr	r24
     596:	86 95       	lsr	r24
     598:	80 25       	eor	r24, r0
     59a:	08 2e       	mov	r0, r24
     59c:	86 95       	lsr	r24
     59e:	80 25       	eor	r24, r0
     5a0:	87 70       	andi	r24, 0x07	; 7
     5a2:	02 2e       	mov	r0, r18
     5a4:	23 2f       	mov	r18, r19
     5a6:	86 95       	lsr	r24
     5a8:	07 94       	ror	r0
     5aa:	87 95       	ror	r24
     5ac:	30 2d       	mov	r19, r0
     5ae:	28 27       	eor	r18, r24
     5b0:	06 94       	lsr	r0
     5b2:	87 95       	ror	r24
     5b4:	30 25       	eor	r19, r0
     5b6:	28 27       	eor	r18, r24
{
	uint16_t crc = 0xFFFF;
	uint8_t *ptr = (uint8_t *) &non_volatile_data; //wskaŸnik na struktur¹ rzutujemy na zmienn¹ jednobajtow¹ ¿eby móc siê przesuwaæ co bajt przy liczeniu CRC
	
	//liczymy crc z ca³ej struktury bez dwóch ostatnich bajtów którymi jest suma crc
	for(uint8_t i=0; i < (sizeof(non_volatile_data)-2); i++){
     5b8:	e4 17       	cp	r30, r20
     5ba:	f5 07       	cpc	r31, r21
     5bc:	29 f7       	brne	.-54     	; 0x588 <eeprom_write+0x10>
		crc = _crc16_update(crc, *ptr++ );
	}
	//wpisujemy crc na ostatni¹ pozycjê
	non_volatile_data.crc = crc;
     5be:	30 93 71 02 	sts	0x0271, r19	; 0x800271 <non_volatile_data+0x27>
     5c2:	20 93 70 02 	sts	0x0270, r18	; 0x800270 <non_volatile_data+0x26>
     5c6:	c2 e0       	ldi	r28, 0x02	; 2
	
	for(uint8_t i=0; i < EEPROM_WRITE_RETRIES ; i++){
		ATOMIC_BLOCK(ATOMIC_RESTORESTATE){
     5c8:	df b7       	in	r29, 0x3f	; 63
    return 1;
}

static __inline__ uint8_t __iCliRetVal(void)
{
    cli();
     5ca:	f8 94       	cli
			eeprom_write_block(&non_volatile_data, &eeprom_data, sizeof(struct eeprom_struct));
     5cc:	48 e2       	ldi	r20, 0x28	; 40
     5ce:	50 e0       	ldi	r21, 0x00	; 0
     5d0:	60 e0       	ldi	r22, 0x00	; 0
     5d2:	70 e0       	ldi	r23, 0x00	; 0
     5d4:	8a e4       	ldi	r24, 0x4A	; 74
     5d6:	92 e0       	ldi	r25, 0x02	; 2
     5d8:	0e 94 c8 0e 	call	0x1d90	; 0x1d90 <eeprom_write_block>
    (void)__s;
}

static __inline__ void __iRestore(const  uint8_t *__s)
{
    SREG = *__s;
     5dc:	df bf       	out	0x3f, r29	; 63
		}
		if (eeprom_read() == EEPROM_OK){ //sprawdzamy czy zapis siê powiód³
     5de:	0e 94 6e 02 	call	0x4dc	; 0x4dc <eeprom_read>
     5e2:	d8 2f       	mov	r29, r24
     5e4:	81 11       	cpse	r24, r1
     5e6:	05 c0       	rjmp	.+10     	; 0x5f2 <eeprom_write+0x7a>
			uart_puts_P("EEPROM write ok\n");
     5e8:	85 ed       	ldi	r24, 0xD5	; 213
     5ea:	90 e0       	ldi	r25, 0x00	; 0
     5ec:	0e 94 19 0e 	call	0x1c32	; 0x1c32 <uart_puts_p>
			return EEPROM_OK;
     5f0:	0b c0       	rjmp	.+22     	; 0x608 <eeprom_write+0x90>
		}
		uart_puts_P("EEPROM write CRC missmatch - retring\n");
     5f2:	8f ea       	ldi	r24, 0xAF	; 175
     5f4:	90 e0       	ldi	r25, 0x00	; 0
     5f6:	0e 94 19 0e 	call	0x1c32	; 0x1c32 <uart_puts_p>
     5fa:	c1 50       	subi	r28, 0x01	; 1
		crc = _crc16_update(crc, *ptr++ );
	}
	//wpisujemy crc na ostatni¹ pozycjê
	non_volatile_data.crc = crc;
	
	for(uint8_t i=0; i < EEPROM_WRITE_RETRIES ; i++){
     5fc:	29 f7       	brne	.-54     	; 0x5c8 <eeprom_write+0x50>
			uart_puts_P("EEPROM write ok\n");
			return EEPROM_OK;
		}
		uart_puts_P("EEPROM write CRC missmatch - retring\n");
	}
	uart_puts_P("EEPROM write failed\n");
     5fe:	8a e9       	ldi	r24, 0x9A	; 154
     600:	90 e0       	ldi	r25, 0x00	; 0
     602:	0e 94 19 0e 	call	0x1c32	; 0x1c32 <uart_puts_p>
	return EEPROM_ERROR;
     606:	d1 e0       	ldi	r29, 0x01	; 1
	
}
     608:	8d 2f       	mov	r24, r29
     60a:	df 91       	pop	r29
     60c:	cf 91       	pop	r28
     60e:	08 95       	ret

00000610 <eeprom_restore_defaults>:

void eeprom_restore_defaults(void){
	
	non_volatile_data.adc_board_position_max = ADC_BOARD_POSITION_MAX;
     610:	ea e4       	ldi	r30, 0x4A	; 74
     612:	f2 e0       	ldi	r31, 0x02	; 2
     614:	85 ed       	ldi	r24, 0xD5	; 213
     616:	92 e0       	ldi	r25, 0x02	; 2
     618:	95 83       	std	Z+5, r25	; 0x05
     61a:	84 83       	std	Z+4, r24	; 0x04
	non_volatile_data.adc_board_position_min = ADC_BOARD_POSITION_MIN;
     61c:	87 e0       	ldi	r24, 0x07	; 7
     61e:	90 e0       	ldi	r25, 0x00	; 0
     620:	97 83       	std	Z+7, r25	; 0x07
     622:	86 83       	std	Z+6, r24	; 0x06
	
	non_volatile_data.adc_current_offset = ADC_CURRENT_OFFSET;
     624:	81 e0       	ldi	r24, 0x01	; 1
     626:	9e ef       	ldi	r25, 0xFE	; 254
     628:	91 87       	std	Z+9, r25	; 0x09
     62a:	80 87       	std	Z+8, r24	; 0x08
	non_volatile_data.adc_current_scale = ADC_CURRENT_SCALE;
     62c:	80 e2       	ldi	r24, 0x20	; 32
     62e:	93 e0       	ldi	r25, 0x03	; 3
     630:	93 87       	std	Z+11, r25	; 0x0b
     632:	82 87       	std	Z+10, r24	; 0x0a
	
	//0x2003
	non_volatile_data.adc_voltage_offset = ADC_VOLTAGE_OFFSET;
     634:	87 e8       	ldi	r24, 0x87	; 135
     636:	90 e0       	ldi	r25, 0x00	; 0
     638:	95 87       	std	Z+13, r25	; 0x0d
     63a:	84 87       	std	Z+12, r24	; 0x0c
	non_volatile_data.adc_voltage_scale = ADC_VOLTAGE_SCALE;
     63c:	8a ea       	ldi	r24, 0xAA	; 170
     63e:	90 e0       	ldi	r25, 0x00	; 0
     640:	97 87       	std	Z+15, r25	; 0x0f
     642:	86 87       	std	Z+14, r24	; 0x0e
	//0x2004
	non_volatile_data.winch_overcurrent_value = OVERCURRENT_WINCH;
     644:	88 e6       	ldi	r24, 0x68	; 104
     646:	80 8b       	std	Z+16, r24	; 0x10
	non_volatile_data.board_overcurrent_value = OVERCURRENT_BOARD;
     648:	82 e3       	ldi	r24, 0x32	; 50
     64a:	81 8b       	std	Z+17, r24	; 0x11
	//0x2005
	non_volatile_data.torque_init_val_winch_up = TORQUE_INIT_VAL_WINCH_UP;
     64c:	88 e5       	ldi	r24, 0x58	; 88
     64e:	92 e0       	ldi	r25, 0x02	; 2
     650:	93 8b       	std	Z+19, r25	; 0x13
     652:	82 8b       	std	Z+18, r24	; 0x12
	non_volatile_data.torque_init_val_winch_down = TORQUE_INIT_VAL_WINCH_DOWN;
     654:	88 ec       	ldi	r24, 0xC8	; 200
     656:	90 e0       	ldi	r25, 0x00	; 0
     658:	95 8b       	std	Z+21, r25	; 0x15
     65a:	84 8b       	std	Z+20, r24	; 0x14
	non_volatile_data.torque_init_val_board_up = TORQUE_INIT_VAL_BOARD_UP;
     65c:	82 ec       	ldi	r24, 0xC2	; 194
     65e:	91 e0       	ldi	r25, 0x01	; 1
     660:	97 8b       	std	Z+23, r25	; 0x17
     662:	86 8b       	std	Z+22, r24	; 0x16
	non_volatile_data.torque_init_val_board_down = TORQUE_INIT_VAL_BOARD_DOWN;
     664:	91 8f       	std	Z+25, r25	; 0x19
     666:	80 8f       	std	Z+24, r24	; 0x18
	//0x2006
	non_volatile_data.torque_rising_speed_period_winch_up = TORQUE_RISING_SPEED_PERIOD_WINCH_UP;
     668:	89 e1       	ldi	r24, 0x19	; 25
     66a:	82 8f       	std	Z+26, r24	; 0x1a
	non_volatile_data.torque_rising_speed_period_winch_down = TORQUE_RISING_SPEED_PERIOD_WINCH_DOWN;
     66c:	83 8f       	std	Z+27, r24	; 0x1b
	non_volatile_data.torque_rising_speed_period_board_up = TORQUE_RISING_SPEED_PERIOD_BOARD_UP;
     66e:	84 8f       	std	Z+28, r24	; 0x1c
	non_volatile_data.torque_rising_speed_period_board_down = TORQUE_RISING_SPEED_PERIOD_BOARD_DOWN;
     670:	85 8f       	std	Z+29, r24	; 0x1d
	//0x2007
	non_volatile_data.torque_rising_speed_winch_up = TORQUE_RISING_SPEED_PERIOD_WINCH_UP;
     672:	89 e1       	ldi	r24, 0x19	; 25
     674:	90 e0       	ldi	r25, 0x00	; 0
     676:	97 8f       	std	Z+31, r25	; 0x1f
     678:	86 8f       	std	Z+30, r24	; 0x1e
	non_volatile_data.torque_rising_speed_winch_down = TORQUE_RISING_SPEED_PERIOD_WINCH_DOWN;
     67a:	91 a3       	std	Z+33, r25	; 0x21
     67c:	80 a3       	std	Z+32, r24	; 0x20
	non_volatile_data.torque_rising_speed_board_up = TORQUE_RISING_SPEED_PERIOD_BOARD_UP;
     67e:	93 a3       	std	Z+35, r25	; 0x23
     680:	82 a3       	std	Z+34, r24	; 0x22
	non_volatile_data.torque_rising_speed_board_down = TORQUE_RISING_SPEED_PERIOD_BOARD_DOWN;
     682:	95 a3       	std	Z+37, r25	; 0x25
     684:	84 a3       	std	Z+36, r24	; 0x24
     686:	08 95       	ret

00000688 <main_loop>:
		}
};

void LEDs_OFF(void){
	LED_0_OFF;
	LED_1_OFF;
     688:	0e 94 1e 01 	call	0x23c	; 0x23c <ADC_task>
     68c:	0e 94 5c 0c 	call	0x18b8	; 0x18b8 <PSC_Task>
     690:	80 91 26 01 	lds	r24, 0x0126	; 0x800126 <winch_status>
     694:	e4 e7       	ldi	r30, 0x74	; 116
     696:	f2 e0       	ldi	r31, 0x02	; 2
     698:	83 83       	std	Z+3, r24	; 0x03
     69a:	83 b1       	in	r24, 0x03	; 3
     69c:	80 72       	andi	r24, 0x20	; 32
     69e:	84 83       	std	Z+4, r24	; 0x04
     6a0:	ab ed       	ldi	r26, 0xDB	; 219
     6a2:	b1 e0       	ldi	r27, 0x01	; 1
     6a4:	16 96       	adiw	r26, 0x06	; 6
     6a6:	8c 91       	ld	r24, X
     6a8:	16 97       	sbiw	r26, 0x06	; 6
     6aa:	80 83       	st	Z, r24
     6ac:	1a 96       	adiw	r26, 0x0a	; 10
     6ae:	8c 91       	ld	r24, X
     6b0:	1a 97       	sbiw	r26, 0x0a	; 10
     6b2:	81 83       	std	Z+1, r24	; 0x01
     6b4:	18 96       	adiw	r26, 0x08	; 8
     6b6:	8c 91       	ld	r24, X
     6b8:	18 97       	sbiw	r26, 0x08	; 8
     6ba:	82 83       	std	Z+2, r24	; 0x02
     6bc:	14 96       	adiw	r26, 0x04	; 4
     6be:	8d 91       	ld	r24, X+
     6c0:	9c 91       	ld	r25, X
     6c2:	15 97       	sbiw	r26, 0x05	; 5
     6c4:	90 87       	std	Z+8, r25	; 0x08
     6c6:	87 83       	std	Z+7, r24	; 0x07
     6c8:	8d 91       	ld	r24, X+
     6ca:	9c 91       	ld	r25, X
     6cc:	92 87       	std	Z+10, r25	; 0x0a
     6ce:	81 87       	std	Z+9, r24	; 0x09
     6d0:	0e 94 41 08 	call	0x1082	; 0x1082 <CAN_task>
     6d4:	80 91 27 01 	lds	r24, 0x0127	; 0x800127 <winch_state>
     6d8:	82 30       	cpi	r24, 0x02	; 2
     6da:	21 f0       	breq	.+8      	; 0x6e4 <main_loop+0x5c>
     6dc:	80 91 27 01 	lds	r24, 0x0127	; 0x800127 <winch_state>
     6e0:	81 30       	cpi	r24, 0x01	; 1
     6e2:	31 f4       	brne	.+12     	; 0x6f0 <main_loop+0x68>
     6e4:	1d 99       	sbic	0x03, 5	; 3
     6e6:	02 c0       	rjmp	.+4      	; 0x6ec <main_loop+0x64>
     6e8:	2c 9a       	sbi	0x05, 4	; 5
     6ea:	09 c0       	rjmp	.+18     	; 0x6fe <main_loop+0x76>
     6ec:	2c 98       	cbi	0x05, 4	; 5
     6ee:	07 c0       	rjmp	.+14     	; 0x6fe <main_loop+0x76>
     6f0:	80 91 27 01 	lds	r24, 0x0127	; 0x800127 <winch_state>
     6f4:	83 30       	cpi	r24, 0x03	; 3
     6f6:	11 f4       	brne	.+4      	; 0x6fc <main_loop+0x74>
     6f8:	2c 9a       	sbi	0x05, 4	; 5
     6fa:	01 c0       	rjmp	.+2      	; 0x6fe <main_loop+0x76>
     6fc:	2c 98       	cbi	0x05, 4	; 5
     6fe:	80 91 27 01 	lds	r24, 0x0127	; 0x800127 <winch_state>
     702:	83 30       	cpi	r24, 0x03	; 3
     704:	09 f4       	brne	.+2      	; 0x708 <main_loop+0x80>
     706:	31 c1       	rjmp	.+610    	; 0x96a <__stack+0x6b>
     708:	80 91 27 01 	lds	r24, 0x0127	; 0x800127 <winch_state>
     70c:	88 23       	and	r24, r24
     70e:	09 f4       	brne	.+2      	; 0x712 <main_loop+0x8a>
     710:	2c c1       	rjmp	.+600    	; 0x96a <__stack+0x6b>
     712:	80 91 27 01 	lds	r24, 0x0127	; 0x800127 <winch_state>
     716:	82 30       	cpi	r24, 0x02	; 2
     718:	29 f0       	breq	.+10     	; 0x724 <main_loop+0x9c>
     71a:	80 91 27 01 	lds	r24, 0x0127	; 0x800127 <winch_state>
     71e:	81 30       	cpi	r24, 0x01	; 1
     720:	09 f0       	breq	.+2      	; 0x724 <main_loop+0x9c>
     722:	23 c1       	rjmp	.+582    	; 0x96a <__stack+0x6b>
     724:	1d 9b       	sbis	0x03, 5	; 3
     726:	0a c0       	rjmp	.+20     	; 0x73c <main_loop+0xb4>
     728:	80 91 5a 02 	lds	r24, 0x025A	; 0x80025a <non_volatile_data+0x10>
     72c:	90 e0       	ldi	r25, 0x00	; 0
     72e:	20 91 e1 01 	lds	r18, 0x01E1	; 0x8001e1 <adc_results+0x6>
     732:	30 91 e2 01 	lds	r19, 0x01E2	; 0x8001e2 <adc_results+0x7>
     736:	28 17       	cp	r18, r24
     738:	39 07       	cpc	r19, r25
     73a:	64 f4       	brge	.+24     	; 0x754 <main_loop+0xcc>
     73c:	1d 99       	sbic	0x03, 5	; 3
     73e:	18 c0       	rjmp	.+48     	; 0x770 <main_loop+0xe8>
     740:	80 91 5b 02 	lds	r24, 0x025B	; 0x80025b <non_volatile_data+0x11>
     744:	90 e0       	ldi	r25, 0x00	; 0
     746:	20 91 e1 01 	lds	r18, 0x01E1	; 0x8001e1 <adc_results+0x6>
     74a:	30 91 e2 01 	lds	r19, 0x01E2	; 0x8001e2 <adc_results+0x7>
     74e:	28 17       	cp	r18, r24
     750:	39 07       	cpc	r19, r25
     752:	74 f0       	brlt	.+28     	; 0x770 <main_loop+0xe8>
     754:	80 91 24 01 	lds	r24, 0x0124	; 0x800124 <winch_timer>
     758:	90 91 25 01 	lds	r25, 0x0125	; 0x800125 <winch_timer+0x1>
     75c:	0e 94 be 0c 	call	0x197c	; 0x197c <timer_time_elapsed>
     760:	8b 34       	cpi	r24, 0x4B	; 75
     762:	91 05       	cpc	r25, r1
     764:	28 f0       	brcs	.+10     	; 0x770 <main_loop+0xe8>
     766:	83 e0       	ldi	r24, 0x03	; 3
     768:	80 93 27 01 	sts	0x0127, r24	; 0x800127 <winch_state>
     76c:	0e 94 56 0c 	call	0x18ac	; 0x18ac <Disable_PSC>
     770:	0e 94 b9 0c 	call	0x1972	; 0x1972 <timer_get>
     774:	90 93 23 01 	sts	0x0123, r25	; 0x800123 <life_timer+0x1>
     778:	80 93 22 01 	sts	0x0122, r24	; 0x800122 <life_timer>
     77c:	80 91 26 01 	lds	r24, 0x0126	; 0x800126 <winch_status>
     780:	81 11       	cpse	r24, r1
     782:	10 c0       	rjmp	.+32     	; 0x7a4 <main_loop+0x11c>
     784:	0e 94 b9 0c 	call	0x1972	; 0x1972 <timer_get>
     788:	90 93 21 01 	sts	0x0121, r25	; 0x800121 <__data_end+0x1>
     78c:	80 93 20 01 	sts	0x0120, r24	; 0x800120 <__data_end>
     790:	0e 94 b9 0c 	call	0x1972	; 0x1972 <timer_get>
     794:	90 93 25 01 	sts	0x0125, r25	; 0x800125 <winch_timer+0x1>
     798:	80 93 24 01 	sts	0x0124, r24	; 0x800124 <winch_timer>
     79c:	81 e0       	ldi	r24, 0x01	; 1
     79e:	80 93 26 01 	sts	0x0126, r24	; 0x800126 <winch_status>
     7a2:	08 95       	ret
     7a4:	80 91 26 01 	lds	r24, 0x0126	; 0x800126 <winch_status>
     7a8:	81 30       	cpi	r24, 0x01	; 1
     7aa:	09 f0       	breq	.+2      	; 0x7ae <main_loop+0x126>
     7ac:	55 c0       	rjmp	.+170    	; 0x858 <main_loop+0x1d0>
     7ae:	80 91 20 01 	lds	r24, 0x0120	; 0x800120 <__data_end>
     7b2:	90 91 21 01 	lds	r25, 0x0121	; 0x800121 <__data_end+0x1>
     7b6:	0e 94 be 0c 	call	0x197c	; 0x197c <timer_time_elapsed>
     7ba:	0f 97       	sbiw	r24, 0x0f	; 15
     7bc:	08 f4       	brcc	.+2      	; 0x7c0 <main_loop+0x138>
     7be:	d5 c0       	rjmp	.+426    	; 0x96a <__stack+0x6b>
     7c0:	80 91 27 01 	lds	r24, 0x0127	; 0x800127 <winch_state>
     7c4:	82 30       	cpi	r24, 0x02	; 2
     7c6:	61 f4       	brne	.+24     	; 0x7e0 <main_loop+0x158>
     7c8:	1d 9b       	sbis	0x03, 5	; 3
     7ca:	05 c0       	rjmp	.+10     	; 0x7d6 <main_loop+0x14e>
     7cc:	80 91 5c 02 	lds	r24, 0x025C	; 0x80025c <non_volatile_data+0x12>
     7d0:	90 91 5d 02 	lds	r25, 0x025D	; 0x80025d <non_volatile_data+0x13>
     7d4:	10 c0       	rjmp	.+32     	; 0x7f6 <main_loop+0x16e>
     7d6:	80 91 60 02 	lds	r24, 0x0260	; 0x800260 <non_volatile_data+0x16>
     7da:	90 91 61 02 	lds	r25, 0x0261	; 0x800261 <non_volatile_data+0x17>
     7de:	0b c0       	rjmp	.+22     	; 0x7f6 <main_loop+0x16e>
     7e0:	1d 9b       	sbis	0x03, 5	; 3
     7e2:	05 c0       	rjmp	.+10     	; 0x7ee <main_loop+0x166>
     7e4:	80 91 5e 02 	lds	r24, 0x025E	; 0x80025e <non_volatile_data+0x14>
     7e8:	90 91 5f 02 	lds	r25, 0x025F	; 0x80025f <non_volatile_data+0x15>
     7ec:	04 c0       	rjmp	.+8      	; 0x7f6 <main_loop+0x16e>
     7ee:	80 91 62 02 	lds	r24, 0x0262	; 0x800262 <non_volatile_data+0x18>
     7f2:	90 91 63 02 	lds	r25, 0x0263	; 0x800263 <non_volatile_data+0x19>
     7f6:	90 93 b0 02 	sts	0x02B0, r25	; 0x8002b0 <PSC+0x1>
     7fa:	80 93 af 02 	sts	0x02AF, r24	; 0x8002af <PSC>
     7fe:	82 e0       	ldi	r24, 0x02	; 2
     800:	80 93 26 01 	sts	0x0126, r24	; 0x800126 <winch_status>
     804:	0e 94 b9 0c 	call	0x1972	; 0x1972 <timer_get>
     808:	90 93 21 01 	sts	0x0121, r25	; 0x800121 <__data_end+0x1>
     80c:	80 93 20 01 	sts	0x0120, r24	; 0x800120 <__data_end>
     810:	0e 94 b9 0c 	call	0x1972	; 0x1972 <timer_get>
     814:	90 93 25 01 	sts	0x0125, r25	; 0x800125 <winch_timer+0x1>
     818:	80 93 24 01 	sts	0x0124, r24	; 0x800124 <winch_timer>
     81c:	80 91 27 01 	lds	r24, 0x0127	; 0x800127 <winch_state>
     820:	82 30       	cpi	r24, 0x02	; 2
     822:	61 f4       	brne	.+24     	; 0x83c <main_loop+0x1b4>
     824:	1d 9b       	sbis	0x03, 5	; 3
     826:	05 c0       	rjmp	.+10     	; 0x832 <main_loop+0x1aa>
     828:	80 91 5c 02 	lds	r24, 0x025C	; 0x80025c <non_volatile_data+0x12>
     82c:	90 91 5d 02 	lds	r25, 0x025D	; 0x80025d <non_volatile_data+0x13>
     830:	10 c0       	rjmp	.+32     	; 0x852 <main_loop+0x1ca>
     832:	80 91 60 02 	lds	r24, 0x0260	; 0x800260 <non_volatile_data+0x16>
     836:	90 91 61 02 	lds	r25, 0x0261	; 0x800261 <non_volatile_data+0x17>
     83a:	0b c0       	rjmp	.+22     	; 0x852 <main_loop+0x1ca>
     83c:	1d 9b       	sbis	0x03, 5	; 3
     83e:	05 c0       	rjmp	.+10     	; 0x84a <main_loop+0x1c2>
     840:	80 91 5e 02 	lds	r24, 0x025E	; 0x80025e <non_volatile_data+0x14>
     844:	90 91 5f 02 	lds	r25, 0x025F	; 0x80025f <non_volatile_data+0x15>
     848:	04 c0       	rjmp	.+8      	; 0x852 <main_loop+0x1ca>
     84a:	80 91 62 02 	lds	r24, 0x0262	; 0x800262 <non_volatile_data+0x18>
     84e:	90 91 63 02 	lds	r25, 0x0263	; 0x800263 <non_volatile_data+0x19>
     852:	0e 94 41 0c 	call	0x1882	; 0x1882 <Enable_PSC>
     856:	08 95       	ret
     858:	80 91 26 01 	lds	r24, 0x0126	; 0x800126 <winch_status>
     85c:	82 30       	cpi	r24, 0x02	; 2
     85e:	09 f0       	breq	.+2      	; 0x862 <main_loop+0x1da>
     860:	82 c0       	rjmp	.+260    	; 0x966 <__stack+0x67>
     862:	80 91 20 01 	lds	r24, 0x0120	; 0x800120 <__data_end>
     866:	90 91 21 01 	lds	r25, 0x0121	; 0x800121 <__data_end+0x1>
     86a:	0e 94 be 0c 	call	0x197c	; 0x197c <timer_time_elapsed>
     86e:	20 91 27 01 	lds	r18, 0x0127	; 0x800127 <winch_state>
     872:	22 30       	cpi	r18, 0x02	; 2
     874:	41 f4       	brne	.+16     	; 0x886 <main_loop+0x1fe>
     876:	1d 9b       	sbis	0x03, 5	; 3
     878:	03 c0       	rjmp	.+6      	; 0x880 <main_loop+0x1f8>
     87a:	20 91 64 02 	lds	r18, 0x0264	; 0x800264 <non_volatile_data+0x1a>
     87e:	0a c0       	rjmp	.+20     	; 0x894 <main_loop+0x20c>
     880:	20 91 66 02 	lds	r18, 0x0266	; 0x800266 <non_volatile_data+0x1c>
     884:	07 c0       	rjmp	.+14     	; 0x894 <main_loop+0x20c>
     886:	1d 9b       	sbis	0x03, 5	; 3
     888:	03 c0       	rjmp	.+6      	; 0x890 <main_loop+0x208>
     88a:	20 91 65 02 	lds	r18, 0x0265	; 0x800265 <non_volatile_data+0x1b>
     88e:	02 c0       	rjmp	.+4      	; 0x894 <main_loop+0x20c>
     890:	20 91 67 02 	lds	r18, 0x0267	; 0x800267 <non_volatile_data+0x1d>
     894:	30 e0       	ldi	r19, 0x00	; 0
     896:	82 17       	cp	r24, r18
     898:	93 07       	cpc	r25, r19
     89a:	08 f4       	brcc	.+2      	; 0x89e <main_loop+0x216>
     89c:	66 c0       	rjmp	.+204    	; 0x96a <__stack+0x6b>
     89e:	0e 94 b9 0c 	call	0x1972	; 0x1972 <timer_get>
     8a2:	90 93 21 01 	sts	0x0121, r25	; 0x800121 <__data_end+0x1>
     8a6:	80 93 20 01 	sts	0x0120, r24	; 0x800120 <__data_end>
     8aa:	80 91 af 02 	lds	r24, 0x02AF	; 0x8002af <PSC>
     8ae:	90 91 b0 02 	lds	r25, 0x02B0	; 0x8002b0 <PSC+0x1>
     8b2:	20 91 27 01 	lds	r18, 0x0127	; 0x800127 <winch_state>
     8b6:	22 30       	cpi	r18, 0x02	; 2
     8b8:	a1 f4       	brne	.+40     	; 0x8e2 <main_loop+0x25a>
     8ba:	1d 9b       	sbis	0x03, 5	; 3
     8bc:	09 c0       	rjmp	.+18     	; 0x8d0 <main_loop+0x248>
     8be:	40 91 68 02 	lds	r20, 0x0268	; 0x800268 <non_volatile_data+0x1e>
     8c2:	50 91 69 02 	lds	r21, 0x0269	; 0x800269 <non_volatile_data+0x1f>
     8c6:	28 ee       	ldi	r18, 0xE8	; 232
     8c8:	33 e0       	ldi	r19, 0x03	; 3
     8ca:	24 1b       	sub	r18, r20
     8cc:	35 0b       	sbc	r19, r21
     8ce:	1c c0       	rjmp	.+56     	; 0x908 <__stack+0x9>
     8d0:	40 91 6c 02 	lds	r20, 0x026C	; 0x80026c <non_volatile_data+0x22>
     8d4:	50 91 6d 02 	lds	r21, 0x026D	; 0x80026d <non_volatile_data+0x23>
     8d8:	28 ee       	ldi	r18, 0xE8	; 232
     8da:	33 e0       	ldi	r19, 0x03	; 3
     8dc:	24 1b       	sub	r18, r20
     8de:	35 0b       	sbc	r19, r21
     8e0:	13 c0       	rjmp	.+38     	; 0x908 <__stack+0x9>
     8e2:	1d 9b       	sbis	0x03, 5	; 3
     8e4:	09 c0       	rjmp	.+18     	; 0x8f8 <main_loop+0x270>
     8e6:	40 91 6a 02 	lds	r20, 0x026A	; 0x80026a <non_volatile_data+0x20>
     8ea:	50 91 6b 02 	lds	r21, 0x026B	; 0x80026b <non_volatile_data+0x21>
     8ee:	28 ee       	ldi	r18, 0xE8	; 232
     8f0:	33 e0       	ldi	r19, 0x03	; 3
     8f2:	24 1b       	sub	r18, r20
     8f4:	35 0b       	sbc	r19, r21
     8f6:	08 c0       	rjmp	.+16     	; 0x908 <__stack+0x9>
     8f8:	40 91 6e 02 	lds	r20, 0x026E	; 0x80026e <non_volatile_data+0x24>
     8fc:	50 91 6f 02 	lds	r21, 0x026F	; 0x80026f <non_volatile_data+0x25>
     900:	28 ee       	ldi	r18, 0xE8	; 232
     902:	33 e0       	ldi	r19, 0x03	; 3
     904:	24 1b       	sub	r18, r20
     906:	35 0b       	sbc	r19, r21
     908:	28 17       	cp	r18, r24
     90a:	39 07       	cpc	r19, r25
     90c:	10 f1       	brcs	.+68     	; 0x952 <__stack+0x53>
     90e:	20 91 27 01 	lds	r18, 0x0127	; 0x800127 <winch_state>
     912:	22 30       	cpi	r18, 0x02	; 2
     914:	61 f4       	brne	.+24     	; 0x92e <__stack+0x2f>
     916:	1d 9b       	sbis	0x03, 5	; 3
     918:	05 c0       	rjmp	.+10     	; 0x924 <__stack+0x25>
     91a:	20 91 68 02 	lds	r18, 0x0268	; 0x800268 <non_volatile_data+0x1e>
     91e:	30 91 69 02 	lds	r19, 0x0269	; 0x800269 <non_volatile_data+0x1f>
     922:	10 c0       	rjmp	.+32     	; 0x944 <__stack+0x45>
     924:	20 91 6c 02 	lds	r18, 0x026C	; 0x80026c <non_volatile_data+0x22>
     928:	30 91 6d 02 	lds	r19, 0x026D	; 0x80026d <non_volatile_data+0x23>
     92c:	0b c0       	rjmp	.+22     	; 0x944 <__stack+0x45>
     92e:	1d 9b       	sbis	0x03, 5	; 3
     930:	05 c0       	rjmp	.+10     	; 0x93c <__stack+0x3d>
     932:	20 91 6a 02 	lds	r18, 0x026A	; 0x80026a <non_volatile_data+0x20>
     936:	30 91 6b 02 	lds	r19, 0x026B	; 0x80026b <non_volatile_data+0x21>
     93a:	04 c0       	rjmp	.+8      	; 0x944 <__stack+0x45>
     93c:	20 91 6e 02 	lds	r18, 0x026E	; 0x80026e <non_volatile_data+0x24>
     940:	30 91 6f 02 	lds	r19, 0x026F	; 0x80026f <non_volatile_data+0x25>
     944:	82 0f       	add	r24, r18
     946:	93 1f       	adc	r25, r19
     948:	90 93 b0 02 	sts	0x02B0, r25	; 0x8002b0 <PSC+0x1>
     94c:	80 93 af 02 	sts	0x02AF, r24	; 0x8002af <PSC>
     950:	08 95       	ret
     952:	88 ee       	ldi	r24, 0xE8	; 232
     954:	93 e0       	ldi	r25, 0x03	; 3
     956:	90 93 b0 02 	sts	0x02B0, r25	; 0x8002b0 <PSC+0x1>
     95a:	80 93 af 02 	sts	0x02AF, r24	; 0x8002af <PSC>
     95e:	83 e0       	ldi	r24, 0x03	; 3
     960:	80 93 26 01 	sts	0x0126, r24	; 0x800126 <winch_status>
     964:	08 95       	ret
     966:	80 91 26 01 	lds	r24, 0x0126	; 0x800126 <winch_status>
     96a:	08 95       	ret

0000096c <HAL_init>:
};

void HAL_init(void){
	
	//w³¹czenie PLL na 64MHz
	PLLCSR |= (1<PLLF) | (1<<PLLE);
     96c:	89 b5       	in	r24, 0x29	; 41
     96e:	83 60       	ori	r24, 0x03	; 3
     970:	89 bd       	out	0x29, r24	; 41
	
	//ustawienie porty na wyjœciowe dla LED-ow
	DDR(LED_0_PORT) |= (1<<LED_0);
     972:	52 9a       	sbi	0x0a, 2	; 10
	DDR(LED_1_PORT) |= (1<<LED_1);
     974:	24 9a       	sbi	0x04, 4	; 4

	LED_0_ON;
     976:	5a 9a       	sbi	0x0b, 2	; 11
	LED_1_ON;
     978:	2c 9a       	sbi	0x05, 4	; 5
	
	//ustawienei podtrzymanie zasilania na wyjœcie
	DDR(PWR_PORT) |= (1<<PWR);
     97a:	23 9a       	sbi	0x04, 3	; 4
	
	//Inicjalizacja DIP Switchy
	DDR(SW_1_PORT) &= ~(1<<SW_1);
     97c:	57 98       	cbi	0x0a, 7	; 10
	DDR(SW_2_PORT) &= ~(1<<SW_2);
     97e:	56 98       	cbi	0x0a, 6	; 10
	DDR(SW_3_PORT) &= ~(1<<SW_3);
     980:	55 98       	cbi	0x0a, 5	; 10
	DDR(SW_4_PORT) &= ~(1<<SW_4);
     982:	21 98       	cbi	0x04, 1	; 4
	DDR(SW_5_PORT) &= ~(1<<SW_5);
     984:	20 98       	cbi	0x04, 0	; 4
	DDR(SW_6_PORT) &= ~(1<<SW_6);
     986:	39 98       	cbi	0x07, 1	; 7
	DDR(SW_7_PORT) &= ~(1<<SW_7);
     988:	51 98       	cbi	0x0a, 1	; 10
	DDR(SW_8_PORT) &= ~(1<<SW_8);
     98a:	38 98       	cbi	0x07, 0	; 7
	
	//w³aczenie pull-up-ów
	PORT(SW_1_PORT) |= 1<<SW_1;
     98c:	5f 9a       	sbi	0x0b, 7	; 11
	PORT(SW_2_PORT) |= 1<<SW_2;
     98e:	5e 9a       	sbi	0x0b, 6	; 11
	PORT(SW_3_PORT) |= 1<<SW_3;
     990:	5d 9a       	sbi	0x0b, 5	; 11
	PORT(SW_4_PORT) |= 1<<SW_4;
     992:	29 9a       	sbi	0x05, 1	; 5
	PORT(SW_5_PORT) |= 1<<SW_5;
     994:	28 9a       	sbi	0x05, 0	; 5
	PORT(SW_6_PORT) |= 1<<SW_6;
     996:	41 9a       	sbi	0x08, 1	; 8
	PORT(SW_7_PORT) |= 1<<SW_7;
     998:	59 9a       	sbi	0x0b, 1	; 11
	PORT(SW_8_PORT) |= 1<<SW_8;
     99a:	40 9a       	sbi	0x08, 0	; 8
	
	//Inicjalizacja wejœæ UP i DOWN
	DDR(WINCH_UP_PORT) &= ~(1<<WINCH_UP);
     99c:	22 98       	cbi	0x04, 2	; 4
	DDR(WINCH_DOWN_PORT) &= ~(1<<WINCH_DOWN);
     99e:	3c 98       	cbi	0x07, 4	; 7
	DDR(WINCH_SET_PIN_PORT) &= ~(1<<WINCH_SET_PIN);
     9a0:	25 98       	cbi	0x04, 5	; 4
	
	//Inicjalizacja wyjœæ
	DDR(BUZZER_PORT) |= (1<<BUZZER);
     9a2:	3f 9a       	sbi	0x07, 7	; 7
	
	//aktywacja przerwañ
	PCICR |= (1<<PCIE0) | (1<<PCIE1);
     9a4:	e8 e6       	ldi	r30, 0x68	; 104
     9a6:	f0 e0       	ldi	r31, 0x00	; 0
     9a8:	80 81       	ld	r24, Z
     9aa:	83 60       	ori	r24, 0x03	; 3
     9ac:	80 83       	st	Z, r24
	
	PCMSK0 |= (1<<PCINT2);
     9ae:	ea e6       	ldi	r30, 0x6A	; 106
     9b0:	f0 e0       	ldi	r31, 0x00	; 0
     9b2:	80 81       	ld	r24, Z
     9b4:	84 60       	ori	r24, 0x04	; 4
     9b6:	80 83       	st	Z, r24
	PCMSK1 |= (1<<PCINT12);
     9b8:	eb e6       	ldi	r30, 0x6B	; 107
     9ba:	f0 e0       	ldi	r31, 0x00	; 0
     9bc:	80 81       	ld	r24, Z
     9be:	80 61       	ori	r24, 0x10	; 16
     9c0:	80 83       	st	Z, r24
     9c2:	08 95       	ret

000009c4 <Get_DIP_sw_word>:
	
};

uint8_t Get_DIP_sw_word(void){
	uint8_t result=0;
	if(SW_1_SET)
     9c4:	89 b1       	in	r24, 0x09	; 9
     9c6:	80 95       	com	r24
     9c8:	88 1f       	adc	r24, r24
     9ca:	88 27       	eor	r24, r24
     9cc:	88 1f       	adc	r24, r24
		result |= 1<<0;
	if(SW_2_SET)
     9ce:	4e 9b       	sbis	0x09, 6	; 9
		result |= 1<<1;
     9d0:	82 60       	ori	r24, 0x02	; 2
	if(SW_3_SET)
     9d2:	4d 9b       	sbis	0x09, 5	; 9
		result |= 1<<2;
     9d4:	84 60       	ori	r24, 0x04	; 4
	if(SW_4_SET)
     9d6:	19 9b       	sbis	0x03, 1	; 3
		result |= 1<<3;
     9d8:	88 60       	ori	r24, 0x08	; 8
	if(SW_5_SET)
     9da:	18 9b       	sbis	0x03, 0	; 3
		result |= 1<<4;
     9dc:	80 61       	ori	r24, 0x10	; 16
	if(SW_6_SET)
     9de:	31 9b       	sbis	0x06, 1	; 6
		result |= 1<<5;
     9e0:	80 62       	ori	r24, 0x20	; 32
	if(SW_7_SET)
     9e2:	49 9b       	sbis	0x09, 1	; 9
		result |= 1<<6;
     9e4:	80 64       	ori	r24, 0x40	; 64
	if(SW_8_SET)
     9e6:	30 9b       	sbis	0x06, 0	; 6
		result |= 1<<7;
     9e8:	80 68       	ori	r24, 0x80	; 128
	return result; 
	
};
     9ea:	08 95       	ret

000009ec <main>:
FILE uart_input = FDEV_SETUP_STREAM(NULL, uart_getc_s, _FDEV_SETUP_READ);


int main(void) {
	
	HAL_init();
     9ec:	0e 94 b6 04 	call	0x96c	; 0x96c <HAL_init>
	timer_init();
     9f0:	0e 94 a6 0c 	call	0x194c	; 0x194c <timer_init>
	ADC_init();
     9f4:	0e 94 e3 00 	call	0x1c6	; 0x1c6 <ADC_init>
	PSC_init();
     9f8:	0e 94 1d 0c 	call	0x183a	; 0x183a <PSC_init>
	uart_init(BAUD);
     9fc:	80 e0       	ldi	r24, 0x00	; 0
     9fe:	91 ee       	ldi	r25, 0xE1	; 225
     a00:	0e 94 7a 0d 	call	0x1af4	; 0x1af4 <uart_init>
	CAN_init(GET_DIP_SW_CAN_ADDR);
     a04:	0e 94 e2 04 	call	0x9c4	; 0x9c4 <Get_DIP_sw_word>
     a08:	87 70       	andi	r24, 0x07	; 7
     a0a:	0e 94 f2 05 	call	0xbe4	; 0xbe4 <CAN_init>

	stdout = &uart_output;
     a0e:	e1 eb       	ldi	r30, 0xB1	; 177
     a10:	f2 e0       	ldi	r31, 0x02	; 2
     a12:	8e e0       	ldi	r24, 0x0E	; 14
     a14:	91 e0       	ldi	r25, 0x01	; 1
     a16:	93 83       	std	Z+3, r25	; 0x03
     a18:	82 83       	std	Z+2, r24	; 0x02
	stdin  = &uart_input;
     a1a:	80 e0       	ldi	r24, 0x00	; 0
     a1c:	91 e0       	ldi	r25, 0x01	; 1
     a1e:	91 83       	std	Z+1, r25	; 0x01
     a20:	80 83       	st	Z, r24
	
	sei();
     a22:	78 94       	sei

	uart_puts_P("Winch Controller\nCompilation date ");
     a24:	84 e5       	ldi	r24, 0x54	; 84
     a26:	91 e0       	ldi	r25, 0x01	; 1
     a28:	0e 94 19 0e 	call	0x1c32	; 0x1c32 <uart_puts_p>
	uart_puts_P(__DATE__);
     a2c:	88 e4       	ldi	r24, 0x48	; 72
     a2e:	91 e0       	ldi	r25, 0x01	; 1
     a30:	0e 94 19 0e 	call	0x1c32	; 0x1c32 <uart_puts_p>
	uart_puts_P("\n");
     a34:	86 e4       	ldi	r24, 0x46	; 70
     a36:	91 e0       	ldi	r25, 0x01	; 1
     a38:	0e 94 19 0e 	call	0x1c32	; 0x1c32 <uart_puts_p>
	
	//próba odczytu konfiguracji z EEPROMU, jeœli odczyt siê nie powiód³ przypisujemy wartoœci domyœlne
	if(eeprom_read() == EEPROM_ERROR){
     a3c:	0e 94 6e 02 	call	0x4dc	; 0x4dc <eeprom_read>
     a40:	81 30       	cpi	r24, 0x01	; 1
     a42:	31 f4       	brne	.+12     	; 0xa50 <main+0x64>
		eeprom_restore_defaults();
     a44:	0e 94 08 03 	call	0x610	; 0x610 <eeprom_restore_defaults>
		uart_puts_P("Loading default values");
     a48:	8f e2       	ldi	r24, 0x2F	; 47
     a4a:	91 e0       	ldi	r25, 0x01	; 1
     a4c:	0e 94 19 0e 	call	0x1c32	; 0x1c32 <uart_puts_p>
	}
	
	
	if( WINCH_UP_SET && WINCH_DOWN_SET ){
     a50:	1a 9b       	sbis	0x03, 2	; 3
     a52:	06 c0       	rjmp	.+12     	; 0xa60 <main+0x74>
     a54:	34 9b       	sbis	0x06, 4	; 6
     a56:	04 c0       	rjmp	.+8      	; 0xa60 <main+0x74>
		power_up_source = SWITCH_ON;
     a58:	81 e0       	ldi	r24, 0x01	; 1
     a5a:	80 93 1c 01 	sts	0x011C, r24	; 0x80011c <power_up_source>
     a5e:	15 c0       	rjmp	.+42     	; 0xa8a <main+0x9e>
	}
	else if(WINCH_UP_SET){
     a60:	1a 9b       	sbis	0x03, 2	; 3
     a62:	07 c0       	rjmp	.+14     	; 0xa72 <main+0x86>
		PWR_ON;
     a64:	2b 9a       	sbi	0x05, 3	; 5
		power_up_source = WINCH_ON;
     a66:	10 92 1c 01 	sts	0x011C, r1	; 0x80011c <power_up_source>
		winch_state = UP;
     a6a:	82 e0       	ldi	r24, 0x02	; 2
     a6c:	80 93 27 01 	sts	0x0127, r24	; 0x800127 <winch_state>
     a70:	0c c0       	rjmp	.+24     	; 0xa8a <main+0x9e>
	}
	else if(WINCH_DOWN_SET){
     a72:	34 9b       	sbis	0x06, 4	; 6
     a74:	07 c0       	rjmp	.+14     	; 0xa84 <main+0x98>
		PWR_ON;
     a76:	2b 9a       	sbi	0x05, 3	; 5
		power_up_source = WINCH_ON;
     a78:	10 92 1c 01 	sts	0x011C, r1	; 0x80011c <power_up_source>
		winch_state = DOWN;
     a7c:	81 e0       	ldi	r24, 0x01	; 1
     a7e:	80 93 27 01 	sts	0x0127, r24	; 0x800127 <winch_state>
     a82:	03 c0       	rjmp	.+6      	; 0xa8a <main+0x9e>
	}
	else{
		power_up_source = SWITCH_ON;
     a84:	81 e0       	ldi	r24, 0x01	; 1
     a86:	80 93 1c 01 	sts	0x011C, r24	; 0x80011c <power_up_source>
	}
	
	//PWR_ON;
	LED_0_ON;
     a8a:	5a 9a       	sbi	0x0b, 2	; 11
	LED_1_OFF;
     a8c:	2c 98       	cbi	0x05, 4	; 5
	
	ADC_start_conversion();
     a8e:	0e 94 18 01 	call	0x230	; 0x230 <ADC_start_conversion>
	
	time_stamp=timer_get();
     a92:	0e 94 b9 0c 	call	0x1972	; 0x1972 <timer_get>
     a96:	90 93 21 01 	sts	0x0121, r25	; 0x800121 <__data_end+0x1>
     a9a:	80 93 20 01 	sts	0x0120, r24	; 0x800120 <__data_end>
	life_timer=timer_get();
     a9e:	0e 94 b9 0c 	call	0x1972	; 0x1972 <timer_get>
     aa2:	90 93 23 01 	sts	0x0123, r25	; 0x800123 <life_timer+0x1>
     aa6:	80 93 22 01 	sts	0x0122, r24	; 0x800122 <life_timer>
	
    while(1) {
		if( timer_new_tick() ){
     aaa:	0e 94 e0 0c 	call	0x19c0	; 0x19c0 <timer_new_tick>
     aae:	88 23       	and	r24, r24
     ab0:	e1 f3       	breq	.-8      	; 0xaaa <main+0xbe>
			main_loop();
     ab2:	0e 94 44 03 	call	0x688	; 0x688 <main_loop>
     ab6:	f9 cf       	rjmp	.-14     	; 0xaaa <main+0xbe>

00000ab8 <__vector_22>:
		result |= 1<<7;
	return result; 
	
};

SIGNAL (PCINT0_vect){ //przerwanie od WINCH_UP
     ab8:	1f 92       	push	r1
     aba:	0f 92       	push	r0
     abc:	0f b6       	in	r0, 0x3f	; 63
     abe:	0f 92       	push	r0
     ac0:	11 24       	eor	r1, r1
     ac2:	2f 93       	push	r18
     ac4:	3f 93       	push	r19
     ac6:	4f 93       	push	r20
     ac8:	5f 93       	push	r21
     aca:	6f 93       	push	r22
     acc:	7f 93       	push	r23
     ace:	8f 93       	push	r24
     ad0:	9f 93       	push	r25
     ad2:	af 93       	push	r26
     ad4:	bf 93       	push	r27
     ad6:	ef 93       	push	r30
     ad8:	ff 93       	push	r31
	if(WINCH_UP_SET && winch_state == OFF){
     ada:	1a 9b       	sbis	0x03, 2	; 3
     adc:	1b c0       	rjmp	.+54     	; 0xb14 <__vector_22+0x5c>
     ade:	80 91 27 01 	lds	r24, 0x0127	; 0x800127 <winch_state>
     ae2:	81 11       	cpse	r24, r1
     ae4:	17 c0       	rjmp	.+46     	; 0xb14 <__vector_22+0x5c>
		winch_state = UP;
     ae6:	82 e0       	ldi	r24, 0x02	; 2
     ae8:	80 93 27 01 	sts	0x0127, r24	; 0x800127 <winch_state>
		PSC.torque = TORQUE_INIT_VAL;
     aec:	84 e6       	ldi	r24, 0x64	; 100
     aee:	90 e0       	ldi	r25, 0x00	; 0
     af0:	90 93 b0 02 	sts	0x02B0, r25	; 0x8002b0 <PSC+0x1>
     af4:	80 93 af 02 	sts	0x02AF, r24	; 0x8002af <PSC>
		winch_timer=timer_get();
     af8:	0e 94 b9 0c 	call	0x1972	; 0x1972 <timer_get>
     afc:	90 93 25 01 	sts	0x0125, r25	; 0x800125 <winch_timer+0x1>
     b00:	80 93 24 01 	sts	0x0124, r24	; 0x800124 <winch_timer>
		//Enable_PSC();
		if(power_up_source == SWITCH_ON){
     b04:	80 91 1c 01 	lds	r24, 0x011C	; 0x80011c <power_up_source>
     b08:	81 30       	cpi	r24, 0x01	; 1
     b0a:	81 f4       	brne	.+32     	; 0xb2c <__vector_22+0x74>
			power_up_source = WINCH_ON;
     b0c:	10 92 1c 01 	sts	0x011C, r1	; 0x80011c <power_up_source>
			PWR_ON;
     b10:	2b 9a       	sbi	0x05, 3	; 5
     b12:	0c c0       	rjmp	.+24     	; 0xb2c <__vector_22+0x74>
		}
	}
	else if(WINCH_UP_CLEAR && winch_state != OFF){
     b14:	1a 99       	sbic	0x03, 2	; 3
     b16:	0a c0       	rjmp	.+20     	; 0xb2c <__vector_22+0x74>
     b18:	80 91 27 01 	lds	r24, 0x0127	; 0x800127 <winch_state>
     b1c:	88 23       	and	r24, r24
     b1e:	31 f0       	breq	.+12     	; 0xb2c <__vector_22+0x74>
		winch_state = OFF;
     b20:	10 92 27 01 	sts	0x0127, r1	; 0x800127 <winch_state>
		Disable_PSC();
     b24:	0e 94 56 0c 	call	0x18ac	; 0x18ac <Disable_PSC>
		winch_status = INIT;
     b28:	10 92 26 01 	sts	0x0126, r1	; 0x800126 <winch_status>
	}
};
     b2c:	ff 91       	pop	r31
     b2e:	ef 91       	pop	r30
     b30:	bf 91       	pop	r27
     b32:	af 91       	pop	r26
     b34:	9f 91       	pop	r25
     b36:	8f 91       	pop	r24
     b38:	7f 91       	pop	r23
     b3a:	6f 91       	pop	r22
     b3c:	5f 91       	pop	r21
     b3e:	4f 91       	pop	r20
     b40:	3f 91       	pop	r19
     b42:	2f 91       	pop	r18
     b44:	0f 90       	pop	r0
     b46:	0f be       	out	0x3f, r0	; 63
     b48:	0f 90       	pop	r0
     b4a:	1f 90       	pop	r1
     b4c:	18 95       	reti

00000b4e <__vector_23>:

SIGNAL (PCINT1_vect){ //przerwanie od WINCH_DOWN
     b4e:	1f 92       	push	r1
     b50:	0f 92       	push	r0
     b52:	0f b6       	in	r0, 0x3f	; 63
     b54:	0f 92       	push	r0
     b56:	11 24       	eor	r1, r1
     b58:	2f 93       	push	r18
     b5a:	3f 93       	push	r19
     b5c:	4f 93       	push	r20
     b5e:	5f 93       	push	r21
     b60:	6f 93       	push	r22
     b62:	7f 93       	push	r23
     b64:	8f 93       	push	r24
     b66:	9f 93       	push	r25
     b68:	af 93       	push	r26
     b6a:	bf 93       	push	r27
     b6c:	ef 93       	push	r30
     b6e:	ff 93       	push	r31
	if(WINCH_DOWN_SET && winch_state == OFF){
     b70:	34 9b       	sbis	0x06, 4	; 6
     b72:	1b c0       	rjmp	.+54     	; 0xbaa <__vector_23+0x5c>
     b74:	80 91 27 01 	lds	r24, 0x0127	; 0x800127 <winch_state>
     b78:	81 11       	cpse	r24, r1
     b7a:	17 c0       	rjmp	.+46     	; 0xbaa <__vector_23+0x5c>
		winch_state = DOWN;
     b7c:	81 e0       	ldi	r24, 0x01	; 1
     b7e:	80 93 27 01 	sts	0x0127, r24	; 0x800127 <winch_state>
		PSC.torque = TORQUE_INIT_VAL;
     b82:	84 e6       	ldi	r24, 0x64	; 100
     b84:	90 e0       	ldi	r25, 0x00	; 0
     b86:	90 93 b0 02 	sts	0x02B0, r25	; 0x8002b0 <PSC+0x1>
     b8a:	80 93 af 02 	sts	0x02AF, r24	; 0x8002af <PSC>
		winch_timer=timer_get();
     b8e:	0e 94 b9 0c 	call	0x1972	; 0x1972 <timer_get>
     b92:	90 93 25 01 	sts	0x0125, r25	; 0x800125 <winch_timer+0x1>
     b96:	80 93 24 01 	sts	0x0124, r24	; 0x800124 <winch_timer>
		//Enable_PSC();
		if(power_up_source == SWITCH_ON){
     b9a:	80 91 1c 01 	lds	r24, 0x011C	; 0x80011c <power_up_source>
     b9e:	81 30       	cpi	r24, 0x01	; 1
     ba0:	81 f4       	brne	.+32     	; 0xbc2 <__vector_23+0x74>
			power_up_source = WINCH_ON;
     ba2:	10 92 1c 01 	sts	0x011C, r1	; 0x80011c <power_up_source>
			PWR_ON;
     ba6:	2b 9a       	sbi	0x05, 3	; 5
     ba8:	0c c0       	rjmp	.+24     	; 0xbc2 <__vector_23+0x74>
		}
	}
	else if(WINCH_DOWN_CLEAR && winch_state != OFF){
     baa:	34 99       	sbic	0x06, 4	; 6
     bac:	0a c0       	rjmp	.+20     	; 0xbc2 <__vector_23+0x74>
     bae:	80 91 27 01 	lds	r24, 0x0127	; 0x800127 <winch_state>
     bb2:	88 23       	and	r24, r24
     bb4:	31 f0       	breq	.+12     	; 0xbc2 <__vector_23+0x74>
		winch_state = OFF;
     bb6:	10 92 27 01 	sts	0x0127, r1	; 0x800127 <winch_state>
		Disable_PSC();
     bba:	0e 94 56 0c 	call	0x18ac	; 0x18ac <Disable_PSC>
		winch_status = INIT;
     bbe:	10 92 26 01 	sts	0x0126, r1	; 0x800126 <winch_status>
	}
};
     bc2:	ff 91       	pop	r31
     bc4:	ef 91       	pop	r30
     bc6:	bf 91       	pop	r27
     bc8:	af 91       	pop	r26
     bca:	9f 91       	pop	r25
     bcc:	8f 91       	pop	r24
     bce:	7f 91       	pop	r23
     bd0:	6f 91       	pop	r22
     bd2:	5f 91       	pop	r21
     bd4:	4f 91       	pop	r20
     bd6:	3f 91       	pop	r19
     bd8:	2f 91       	pop	r18
     bda:	0f 90       	pop	r0
     bdc:	0f be       	out	0x3f, r0	; 63
     bde:	0f 90       	pop	r0
     be0:	1f 90       	pop	r1
     be2:	18 95       	reti

00000be4 <CAN_init>:

volatile uint16_t int_counter=0;


//Inicjalizacja CAN
void CAN_init(uint8_t dip_sw){
     be4:	2f 92       	push	r2
     be6:	3f 92       	push	r3
     be8:	4f 92       	push	r4
     bea:	5f 92       	push	r5
     bec:	6f 92       	push	r6
     bee:	7f 92       	push	r7
     bf0:	8f 92       	push	r8
     bf2:	9f 92       	push	r9
     bf4:	af 92       	push	r10
     bf6:	bf 92       	push	r11
     bf8:	cf 92       	push	r12
     bfa:	df 92       	push	r13
     bfc:	ef 92       	push	r14
     bfe:	ff 92       	push	r15
     c00:	0f 93       	push	r16
     c02:	1f 93       	push	r17
     c04:	cf 93       	push	r28
     c06:	df 93       	push	r29
     c08:	00 d0       	rcall	.+0      	; 0xc0a <CAN_init+0x26>
     c0a:	00 d0       	rcall	.+0      	; 0xc0c <CAN_init+0x28>
     c0c:	cd b7       	in	r28, 0x3d	; 61
     c0e:	de b7       	in	r29, 0x3e	; 62
	uint16_t mob_3_id = 0x280 + BASE_ID; //TPDO 2
	uint16_t mob_4_id = 0x580 + BASE_ID; //SDO TX
	uint16_t mob_5_id = 0x600 + BASE_ID; //SDO RX
	
	//dodwania do adresu ustawienia z DIP switchy
	mob_1_id += dip_sw;
     c10:	90 e0       	ldi	r25, 0x00	; 0
     c12:	6c 01       	movw	r12, r24
     c14:	20 ef       	ldi	r18, 0xF0	; 240
     c16:	c2 1a       	sub	r12, r18
     c18:	2d ef       	ldi	r18, 0xFD	; 253
     c1a:	d2 0a       	sbc	r13, r18
	mob_2_id += dip_sw;
     c1c:	2c 01       	movw	r4, r24
     c1e:	30 e7       	ldi	r19, 0x70	; 112
     c20:	43 1a       	sub	r4, r19
     c22:	3e ef       	ldi	r19, 0xFE	; 254
     c24:	53 0a       	sbc	r5, r19
	mob_3_id += dip_sw;
     c26:	dc 01       	movw	r26, r24
     c28:	a0 57       	subi	r26, 0x70	; 112
     c2a:	bd 4f       	sbci	r27, 0xFD	; 253
     c2c:	ba 83       	std	Y+2, r27	; 0x02
     c2e:	a9 83       	std	Y+1, r26	; 0x01
	mob_4_id += dip_sw;
     c30:	fc 01       	movw	r30, r24
     c32:	e0 57       	subi	r30, 0x70	; 112
     c34:	fa 4f       	sbci	r31, 0xFA	; 250
     c36:	fc 83       	std	Y+4, r31	; 0x04
     c38:	eb 83       	std	Y+3, r30	; 0x03
	mob_5_id += dip_sw;
     c3a:	1c 01       	movw	r2, r24
     c3c:	f0 ef       	ldi	r31, 0xF0	; 240
     c3e:	2f 1a       	sub	r2, r31
     c40:	f9 ef       	ldi	r31, 0xF9	; 249
     c42:	3f 0a       	sbc	r3, r31
	
	CANGCON = ( 1 << SWRES );   // Software reset
     c44:	81 e0       	ldi	r24, 0x01	; 1
     c46:	80 93 d8 00 	sts	0x00D8, r24	; 0x8000d8 <__TEXT_REGION_LENGTH__+0x7e00d8>
	CANTCON = 0x00;             // CAN timing prescaler set to 0
     c4a:	10 92 e5 00 	sts	0x00E5, r1	; 0x8000e5 <__TEXT_REGION_LENGTH__+0x7e00e5>
	
	CANBT1	|= 0x0E; //CAN Baud set 125kbit
     c4e:	e2 ee       	ldi	r30, 0xE2	; 226
     c50:	f0 e0       	ldi	r31, 0x00	; 0
     c52:	80 81       	ld	r24, Z
     c54:	8e 60       	ori	r24, 0x0E	; 14
     c56:	80 83       	st	Z, r24
	CANBT2	|= 0x0C; //CAN Baud set 125kbit
     c58:	e3 ee       	ldi	r30, 0xE3	; 227
     c5a:	f0 e0       	ldi	r31, 0x00	; 0
     c5c:	80 81       	ld	r24, Z
     c5e:	8c 60       	ori	r24, 0x0C	; 12
     c60:	80 83       	st	Z, r24
	CANBT3	|= 0x37; //CAN Baud set 125kbit
     c62:	e4 ee       	ldi	r30, 0xE4	; 228
     c64:	f0 e0       	ldi	r31, 0x00	; 0
     c66:	80 81       	ld	r24, Z
     c68:	87 63       	ori	r24, 0x37	; 55
     c6a:	80 83       	st	Z, r24
	
	for ( int8_t mob=0; mob<6; mob++ ) {
     c6c:	80 e0       	ldi	r24, 0x00	; 0
		CANPAGE = ( mob << 4 );   // Selects Message Object 0-5
     c6e:	2d ee       	ldi	r18, 0xED	; 237
     c70:	30 e0       	ldi	r19, 0x00	; 0
		CANCDMOB = 0x00;          // Disable mob
     c72:	af ee       	ldi	r26, 0xEF	; 239
     c74:	b0 e0       	ldi	r27, 0x00	; 0
		CANSTMOB = 0x00;          // Clear mob status register;
     c76:	4e ee       	ldi	r20, 0xEE	; 238
     c78:	50 e0       	ldi	r21, 0x00	; 0
	CANBT1	|= 0x0E; //CAN Baud set 125kbit
	CANBT2	|= 0x0C; //CAN Baud set 125kbit
	CANBT3	|= 0x37; //CAN Baud set 125kbit
	
	for ( int8_t mob=0; mob<6; mob++ ) {
		CANPAGE = ( mob << 4 );   // Selects Message Object 0-5
     c7a:	98 2f       	mov	r25, r24
     c7c:	92 95       	swap	r25
     c7e:	90 7f       	andi	r25, 0xF0	; 240
     c80:	f9 01       	movw	r30, r18
     c82:	90 83       	st	Z, r25
		CANCDMOB = 0x00;          // Disable mob
     c84:	1c 92       	st	X, r1
		CANSTMOB = 0x00;          // Clear mob status register;
     c86:	fa 01       	movw	r30, r20
     c88:	10 82       	st	Z, r1
     c8a:	8f 5f       	subi	r24, 0xFF	; 255
	
	CANBT1	|= 0x0E; //CAN Baud set 125kbit
	CANBT2	|= 0x0C; //CAN Baud set 125kbit
	CANBT3	|= 0x37; //CAN Baud set 125kbit
	
	for ( int8_t mob=0; mob<6; mob++ ) {
     c8c:	86 30       	cpi	r24, 0x06	; 6
     c8e:	a9 f7       	brne	.-22     	; 0xc7a <CAN_init+0x96>
		CANSTMOB = 0x00;          // Clear mob status register;
	}
			
	
	//MOb 0 configuration SYNC
	CANPAGE	 = (MOb_0<<4);
     c90:	0f 2e       	mov	r0, r31
     c92:	fd ee       	ldi	r31, 0xED	; 237
     c94:	ef 2e       	mov	r14, r31
     c96:	f1 2c       	mov	r15, r1
     c98:	f0 2d       	mov	r31, r0
     c9a:	d7 01       	movw	r26, r14
     c9c:	1c 92       	st	X, r1
	CANIDM4 = 0x00; //full mask setting
     c9e:	04 ef       	ldi	r16, 0xF4	; 244
     ca0:	10 e0       	ldi	r17, 0x00	; 0
     ca2:	f8 01       	movw	r30, r16
     ca4:	10 82       	st	Z, r1
	CANIDM3 = 0x00; //full mask setting
     ca6:	65 ef       	ldi	r22, 0xF5	; 245
     ca8:	70 e0       	ldi	r23, 0x00	; 0
     caa:	db 01       	movw	r26, r22
     cac:	1c 92       	st	X, r1
	CANIDM2 = 0xFF; //full mask setting
     cae:	46 ef       	ldi	r20, 0xF6	; 246
     cb0:	50 e0       	ldi	r21, 0x00	; 0
     cb2:	99 24       	eor	r9, r9
     cb4:	9a 94       	dec	r9
     cb6:	fa 01       	movw	r30, r20
     cb8:	90 82       	st	Z, r9
	CANIDM1 = 0xFF; //full mask setting
     cba:	27 ef       	ldi	r18, 0xF7	; 247
     cbc:	30 e0       	ldi	r19, 0x00	; 0
     cbe:	d9 01       	movw	r26, r18
     cc0:	9c 92       	st	X, r9
	CANCDMOB = 0x00;
     cc2:	ef ee       	ldi	r30, 0xEF	; 239
     cc4:	f0 e0       	ldi	r31, 0x00	; 0
     cc6:	10 82       	st	Z, r1
	CANCDMOB |= RECEPTION;
     cc8:	80 81       	ld	r24, Z
     cca:	80 68       	ori	r24, 0x80	; 128
     ccc:	80 83       	st	Z, r24
	CANIDT4 = 0x00;
     cce:	80 ef       	ldi	r24, 0xF0	; 240
     cd0:	90 e0       	ldi	r25, 0x00	; 0
     cd2:	dc 01       	movw	r26, r24
     cd4:	1c 92       	st	X, r1
	CANIDT3 = 0x00;
     cd6:	e1 ef       	ldi	r30, 0xF1	; 241
     cd8:	f0 e0       	ldi	r31, 0x00	; 0
     cda:	10 82       	st	Z, r1
	CANIDT2 = ((mob_0_id & 0x07) << 5);
     cdc:	0f 2e       	mov	r0, r31
     cde:	f2 ef       	ldi	r31, 0xF2	; 242
     ce0:	af 2e       	mov	r10, r31
     ce2:	b1 2c       	mov	r11, r1
     ce4:	f0 2d       	mov	r31, r0
     ce6:	d5 01       	movw	r26, r10
     ce8:	1c 92       	st	X, r1
	CANIDT1 = (mob_0_id >> 3);
     cea:	0f 2e       	mov	r0, r31
     cec:	f3 ef       	ldi	r31, 0xF3	; 243
     cee:	6f 2e       	mov	r6, r31
     cf0:	71 2c       	mov	r7, r1
     cf2:	f0 2d       	mov	r31, r0
     cf4:	68 94       	set
     cf6:	88 24       	eor	r8, r8
     cf8:	84 f8       	bld	r8, 4
     cfa:	f3 01       	movw	r30, r6
     cfc:	80 82       	st	Z, r8
	CANIE2	|= (1<<IEMOB0); //Enable Interrupt MOb 0
     cfe:	ee ed       	ldi	r30, 0xDE	; 222
     d00:	f0 e0       	ldi	r31, 0x00	; 0
     d02:	80 80       	ld	r8, Z
     d04:	a8 2d       	mov	r26, r8
     d06:	a1 60       	ori	r26, 0x01	; 1
     d08:	a0 83       	st	Z, r26
	
	//MOb 1 configuration odbierana paczka RPDO 1 0x200+
	CANPAGE	 = (MOb_1<<4);
     d0a:	68 94       	set
     d0c:	88 24       	eor	r8, r8
     d0e:	84 f8       	bld	r8, 4
     d10:	d7 01       	movw	r26, r14
     d12:	8c 92       	st	X, r8
	CANIDM4 = 0x00; //full mask setting
     d14:	d8 01       	movw	r26, r16
     d16:	1c 92       	st	X, r1
	CANIDM3 = 0x00; //full mask setting
     d18:	db 01       	movw	r26, r22
     d1a:	1c 92       	st	X, r1
	CANIDM2 = 0xFF; //full mask setting
     d1c:	da 01       	movw	r26, r20
     d1e:	9c 92       	st	X, r9
	CANIDM1 = 0xFF; //full mask setting
     d20:	d9 01       	movw	r26, r18
     d22:	9c 92       	st	X, r9
	CANCDMOB = 0x00;
     d24:	af ee       	ldi	r26, 0xEF	; 239
     d26:	b0 e0       	ldi	r27, 0x00	; 0
     d28:	1c 92       	st	X, r1
	CANCDMOB |= RECEPTION | ( 8 << DLC0);
     d2a:	8c 90       	ld	r8, X
     d2c:	b8 2d       	mov	r27, r8
     d2e:	b8 68       	ori	r27, 0x88	; 136
     d30:	8b 2e       	mov	r8, r27
     d32:	af ee       	ldi	r26, 0xEF	; 239
     d34:	b0 e0       	ldi	r27, 0x00	; 0
     d36:	8c 92       	st	X, r8
	CANIDT4 = 0x00;
     d38:	dc 01       	movw	r26, r24
     d3a:	1c 92       	st	X, r1
	CANIDT3 = 0x00;
     d3c:	a1 ef       	ldi	r26, 0xF1	; 241
     d3e:	b0 e0       	ldi	r27, 0x00	; 0
     d40:	1c 92       	st	X, r1
	CANIDT2 = ((mob_1_id & 0x07) << 5);
     d42:	8c 2c       	mov	r8, r12
     d44:	88 0c       	add	r8, r8
     d46:	88 0c       	add	r8, r8
     d48:	88 0c       	add	r8, r8
     d4a:	88 0c       	add	r8, r8
     d4c:	88 0c       	add	r8, r8
     d4e:	d5 01       	movw	r26, r10
     d50:	8c 92       	st	X, r8
	CANIDT1 = (mob_1_id >> 3);
     d52:	d6 94       	lsr	r13
     d54:	c7 94       	ror	r12
     d56:	d6 94       	lsr	r13
     d58:	c7 94       	ror	r12
     d5a:	d6 94       	lsr	r13
     d5c:	c7 94       	ror	r12
     d5e:	d3 01       	movw	r26, r6
     d60:	cc 92       	st	X, r12
	CANIE2	|= (1<<IEMOB1); //Enable Interrupt MOb 1
     d62:	d0 80       	ld	r13, Z
     d64:	bd 2d       	mov	r27, r13
     d66:	b2 60       	ori	r27, 0x02	; 2
     d68:	b0 83       	st	Z, r27
	
	//MOb 2 configuration nadawana paczka TPDO 1 0x180+
	CANPAGE	 = (MOb_2<<4);
     d6a:	68 94       	set
     d6c:	dd 24       	eor	r13, r13
     d6e:	d5 f8       	bld	r13, 5
     d70:	d7 01       	movw	r26, r14
     d72:	dc 92       	st	X, r13
	CANIDM4 = 0x00; //full mask setting
     d74:	d8 01       	movw	r26, r16
     d76:	1c 92       	st	X, r1
	CANIDM3 = 0x00; //full mask setting
     d78:	db 01       	movw	r26, r22
     d7a:	1c 92       	st	X, r1
	CANIDM2 = (0x07 <<5); //full mask setting
     d7c:	0f 2e       	mov	r0, r31
     d7e:	f0 ee       	ldi	r31, 0xE0	; 224
     d80:	8f 2e       	mov	r8, r31
     d82:	f0 2d       	mov	r31, r0
     d84:	da 01       	movw	r26, r20
     d86:	8c 92       	st	X, r8
	CANIDM1 = 0xFF; //full mask setting
     d88:	d9 01       	movw	r26, r18
     d8a:	9c 92       	st	X, r9
	CANCDMOB = 0x00;
     d8c:	af ee       	ldi	r26, 0xEF	; 239
     d8e:	b0 e0       	ldi	r27, 0x00	; 0
     d90:	1c 92       	st	X, r1
	//CANCDMOB |= TRANSMISSION;
	CANIDT4 = 0x00;
     d92:	dc 01       	movw	r26, r24
     d94:	1c 92       	st	X, r1
	CANIDT3 = 0x00;
     d96:	a1 ef       	ldi	r26, 0xF1	; 241
     d98:	b0 e0       	ldi	r27, 0x00	; 0
     d9a:	1c 92       	st	X, r1
	CANIDT2 = ((mob_2_id & 0x07) << 5);
     d9c:	d4 2c       	mov	r13, r4
     d9e:	dd 0c       	add	r13, r13
     da0:	dd 0c       	add	r13, r13
     da2:	dd 0c       	add	r13, r13
     da4:	dd 0c       	add	r13, r13
     da6:	dd 0c       	add	r13, r13
     da8:	d5 01       	movw	r26, r10
     daa:	dc 92       	st	X, r13
	CANIDT1 = (mob_2_id >> 3);
     dac:	62 01       	movw	r12, r4
     dae:	d6 94       	lsr	r13
     db0:	c7 94       	ror	r12
     db2:	d6 94       	lsr	r13
     db4:	c7 94       	ror	r12
     db6:	d6 94       	lsr	r13
     db8:	c7 94       	ror	r12
     dba:	d3 01       	movw	r26, r6
     dbc:	cc 92       	st	X, r12
	CANIE2	|= (1<<IEMOB2); //Enable Interrupt MOb 2
     dbe:	d0 80       	ld	r13, Z
     dc0:	bd 2d       	mov	r27, r13
     dc2:	b4 60       	ori	r27, 0x04	; 4
     dc4:	b0 83       	st	Z, r27
	
	
	//MOb 3 configuration nadawana paczka TPDO 2 0x280+
	CANPAGE	 = (MOb_3<<4);
     dc6:	0f 2e       	mov	r0, r31
     dc8:	f0 e3       	ldi	r31, 0x30	; 48
     dca:	df 2e       	mov	r13, r31
     dcc:	f0 2d       	mov	r31, r0
     dce:	d7 01       	movw	r26, r14
     dd0:	dc 92       	st	X, r13
	CANIDM4 = 0x00; //full mask setting
     dd2:	d8 01       	movw	r26, r16
     dd4:	1c 92       	st	X, r1
	CANIDM3 = 0x00; //full mask setting
     dd6:	db 01       	movw	r26, r22
     dd8:	1c 92       	st	X, r1
	CANIDM2 = (0x07 <<5); //full mask setting
     dda:	da 01       	movw	r26, r20
     ddc:	8c 92       	st	X, r8
	CANIDM1 = 0xFF; //full mask setting
     dde:	d9 01       	movw	r26, r18
     de0:	9c 92       	st	X, r9
	CANCDMOB = 0x00;
     de2:	af ee       	ldi	r26, 0xEF	; 239
     de4:	b0 e0       	ldi	r27, 0x00	; 0
     de6:	1c 92       	st	X, r1
	//CANCDMOB |= TRANSMISSION;
	CANIDT4 = 0x00;
     de8:	dc 01       	movw	r26, r24
     dea:	1c 92       	st	X, r1
	CANIDT3 = 0x00;
     dec:	a1 ef       	ldi	r26, 0xF1	; 241
     dee:	b0 e0       	ldi	r27, 0x00	; 0
     df0:	1c 92       	st	X, r1
	CANIDT2 = ((mob_3_id & 0x07) << 5);
     df2:	d9 80       	ldd	r13, Y+1	; 0x01
     df4:	dd 0c       	add	r13, r13
     df6:	dd 0c       	add	r13, r13
     df8:	dd 0c       	add	r13, r13
     dfa:	dd 0c       	add	r13, r13
     dfc:	dd 0c       	add	r13, r13
     dfe:	d5 01       	movw	r26, r10
     e00:	dc 92       	st	X, r13
	CANIDT1 = (mob_3_id >> 3);
     e02:	c9 80       	ldd	r12, Y+1	; 0x01
     e04:	da 80       	ldd	r13, Y+2	; 0x02
     e06:	d6 94       	lsr	r13
     e08:	c7 94       	ror	r12
     e0a:	d6 94       	lsr	r13
     e0c:	c7 94       	ror	r12
     e0e:	d6 94       	lsr	r13
     e10:	c7 94       	ror	r12
     e12:	d3 01       	movw	r26, r6
     e14:	cc 92       	st	X, r12
	CANIE2	|= (1<<IEMOB3); //Enable Interrupt MOb 3
     e16:	d0 80       	ld	r13, Z
     e18:	bd 2d       	mov	r27, r13
     e1a:	b8 60       	ori	r27, 0x08	; 8
     e1c:	b0 83       	st	Z, r27
	
	//MOb 4 configuration nadawana paczka SDO TX
	CANPAGE	 = (MOb_4<<4);
     e1e:	68 94       	set
     e20:	dd 24       	eor	r13, r13
     e22:	d6 f8       	bld	r13, 6
     e24:	d7 01       	movw	r26, r14
     e26:	dc 92       	st	X, r13
	CANIDM4 = 0x00; //full mask setting
     e28:	d8 01       	movw	r26, r16
     e2a:	1c 92       	st	X, r1
	CANIDM3 = 0x00; //full mask setting
     e2c:	db 01       	movw	r26, r22
     e2e:	1c 92       	st	X, r1
	CANIDM2 = (0x07 <<5); //full mask setting
     e30:	da 01       	movw	r26, r20
     e32:	8c 92       	st	X, r8
	CANIDM1 = 0xFF; //full mask setting
     e34:	d9 01       	movw	r26, r18
     e36:	9c 92       	st	X, r9
	CANCDMOB = 0x00;
     e38:	af ee       	ldi	r26, 0xEF	; 239
     e3a:	b0 e0       	ldi	r27, 0x00	; 0
     e3c:	1c 92       	st	X, r1
	//CANCDMOB |= TRANSMISSION;
	CANIDT4 = 0x00;
     e3e:	dc 01       	movw	r26, r24
     e40:	1c 92       	st	X, r1
	CANIDT3 = 0x00;
     e42:	a1 ef       	ldi	r26, 0xF1	; 241
     e44:	b0 e0       	ldi	r27, 0x00	; 0
     e46:	1c 92       	st	X, r1
	CANIDT2 = ((mob_4_id & 0x07) << 5);
     e48:	db 80       	ldd	r13, Y+3	; 0x03
     e4a:	dd 0c       	add	r13, r13
     e4c:	dd 0c       	add	r13, r13
     e4e:	dd 0c       	add	r13, r13
     e50:	dd 0c       	add	r13, r13
     e52:	dd 0c       	add	r13, r13
     e54:	d5 01       	movw	r26, r10
     e56:	dc 92       	st	X, r13
	CANIDT1 = (mob_4_id >> 3);
     e58:	cb 80       	ldd	r12, Y+3	; 0x03
     e5a:	dc 80       	ldd	r13, Y+4	; 0x04
     e5c:	d6 94       	lsr	r13
     e5e:	c7 94       	ror	r12
     e60:	d6 94       	lsr	r13
     e62:	c7 94       	ror	r12
     e64:	d6 94       	lsr	r13
     e66:	c7 94       	ror	r12
     e68:	d3 01       	movw	r26, r6
     e6a:	cc 92       	st	X, r12
	CANIE2	|= (1<<IEMOB4); //Enable Interrupt MOb 4
     e6c:	d0 80       	ld	r13, Z
     e6e:	bd 2d       	mov	r27, r13
     e70:	b0 61       	ori	r27, 0x10	; 16
     e72:	b0 83       	st	Z, r27
	
	//MOb 5 configuration odbierana paczka SDO RX
	CANPAGE	 = (MOb_5<<4);
     e74:	0f 2e       	mov	r0, r31
     e76:	f0 e5       	ldi	r31, 0x50	; 80
     e78:	df 2e       	mov	r13, r31
     e7a:	f0 2d       	mov	r31, r0
     e7c:	d7 01       	movw	r26, r14
     e7e:	dc 92       	st	X, r13
	CANIDM4 = 0x00; //full mask setting
     e80:	d8 01       	movw	r26, r16
     e82:	1c 92       	st	X, r1
	CANIDM3 = 0x00; //full mask setting
     e84:	db 01       	movw	r26, r22
     e86:	1c 92       	st	X, r1
	CANIDM2 = 0xFF; //full mask setting
     e88:	da 01       	movw	r26, r20
     e8a:	9c 92       	st	X, r9
	CANIDM1 = 0xFF; //full mask setting
     e8c:	d9 01       	movw	r26, r18
     e8e:	9c 92       	st	X, r9
	CANCDMOB = 0x00;
     e90:	af ee       	ldi	r26, 0xEF	; 239
     e92:	b0 e0       	ldi	r27, 0x00	; 0
     e94:	1c 92       	st	X, r1
	CANCDMOB |= RECEPTION | ( 8 << DLC0);
     e96:	2c 91       	ld	r18, X
     e98:	28 68       	ori	r18, 0x88	; 136
     e9a:	2c 93       	st	X, r18
	CANIDT4 = 0x00;
     e9c:	dc 01       	movw	r26, r24
     e9e:	1c 92       	st	X, r1
	CANIDT3 = 0x00;
     ea0:	a1 ef       	ldi	r26, 0xF1	; 241
     ea2:	b0 e0       	ldi	r27, 0x00	; 0
     ea4:	1c 92       	st	X, r1
	CANIDT2 = ((mob_5_id & 0x07) << 5);
     ea6:	82 2d       	mov	r24, r2
     ea8:	82 95       	swap	r24
     eaa:	88 0f       	add	r24, r24
     eac:	80 7e       	andi	r24, 0xE0	; 224
     eae:	d5 01       	movw	r26, r10
     eb0:	8c 93       	st	X, r24
	CANIDT1 = (mob_5_id >> 3);
     eb2:	c1 01       	movw	r24, r2
     eb4:	96 95       	lsr	r25
     eb6:	87 95       	ror	r24
     eb8:	96 95       	lsr	r25
     eba:	87 95       	ror	r24
     ebc:	96 95       	lsr	r25
     ebe:	87 95       	ror	r24
     ec0:	d3 01       	movw	r26, r6
     ec2:	8c 93       	st	X, r24
	CANIE2	|= (1<<IEMOB5); //Enable Interrupt MOb 5
     ec4:	80 81       	ld	r24, Z
     ec6:	80 62       	ori	r24, 0x20	; 32
     ec8:	80 83       	st	Z, r24
	
	
	CLEAR_FLAG(can_state.flags, CAN_FLAG_INTERRUPT);
     eca:	80 91 72 02 	lds	r24, 0x0272	; 0x800272 <can_state>
     ece:	8e 7f       	andi	r24, 0xFE	; 254
     ed0:	80 93 72 02 	sts	0x0272, r24	; 0x800272 <can_state>
	
	CANGCON |= (1<<ENASTB); //Enable controller
     ed4:	e8 ed       	ldi	r30, 0xD8	; 216
     ed6:	f0 e0       	ldi	r31, 0x00	; 0
     ed8:	80 81       	ld	r24, Z
     eda:	82 60       	ori	r24, 0x02	; 2
     edc:	80 83       	st	Z, r24
	
	CANGIE	|= ( 1 << ENIT ) | (1<<ENRX); //Enable Receive Interrupt
     ede:	eb ed       	ldi	r30, 0xDB	; 219
     ee0:	f0 e0       	ldi	r31, 0x00	; 0
     ee2:	80 81       	ld	r24, Z
     ee4:	80 6a       	ori	r24, 0xA0	; 160
     ee6:	80 83       	st	Z, r24
}
     ee8:	0f 90       	pop	r0
     eea:	0f 90       	pop	r0
     eec:	0f 90       	pop	r0
     eee:	0f 90       	pop	r0
     ef0:	df 91       	pop	r29
     ef2:	cf 91       	pop	r28
     ef4:	1f 91       	pop	r17
     ef6:	0f 91       	pop	r16
     ef8:	ff 90       	pop	r15
     efa:	ef 90       	pop	r14
     efc:	df 90       	pop	r13
     efe:	cf 90       	pop	r12
     f00:	bf 90       	pop	r11
     f02:	af 90       	pop	r10
     f04:	9f 90       	pop	r9
     f06:	8f 90       	pop	r8
     f08:	7f 90       	pop	r7
     f0a:	6f 90       	pop	r6
     f0c:	5f 90       	pop	r5
     f0e:	4f 90       	pop	r4
     f10:	3f 90       	pop	r3
     f12:	2f 90       	pop	r2
     f14:	08 95       	ret

00000f16 <__vector_18>:

//Obs³uga przerwania
SIGNAL ( CAN_INT_vect ){              // use interrupts
     f16:	1f 92       	push	r1
     f18:	0f 92       	push	r0
     f1a:	0f b6       	in	r0, 0x3f	; 63
     f1c:	0f 92       	push	r0
     f1e:	11 24       	eor	r1, r1
     f20:	2f 93       	push	r18
     f22:	8f 93       	push	r24
     f24:	9f 93       	push	r25
     f26:	af 93       	push	r26
     f28:	bf 93       	push	r27
     f2a:	ef 93       	push	r30
     f2c:	ff 93       	push	r31
	
	//SET_FLAG(can_state.flags, CAN_FLAG_INTERRUPT);
	int_counter++;
     f2e:	80 91 29 01 	lds	r24, 0x0129	; 0x800129 <int_counter>
     f32:	90 91 2a 01 	lds	r25, 0x012A	; 0x80012a <int_counter+0x1>
     f36:	01 96       	adiw	r24, 0x01	; 1
     f38:	90 93 2a 01 	sts	0x012A, r25	; 0x80012a <int_counter+0x1>
     f3c:	80 93 29 01 	sts	0x0129, r24	; 0x800129 <int_counter>
	
	CANPAGE = CANHPMOB & 0xF0;      // Selects MOB with highest priority interrupt 
     f40:	80 91 ec 00 	lds	r24, 0x00EC	; 0x8000ec <__TEXT_REGION_LENGTH__+0x7e00ec>
     f44:	80 7f       	andi	r24, 0xF0	; 240
     f46:	ed ee       	ldi	r30, 0xED	; 237
     f48:	f0 e0       	ldi	r31, 0x00	; 0
     f4a:	80 83       	st	Z, r24
				
		if((CANPAGE>>4) == MOb_0){ //SYNC - odbiera
     f4c:	80 81       	ld	r24, Z
     f4e:	82 95       	swap	r24
     f50:	8f 70       	andi	r24, 0x0F	; 15
     f52:	91 f4       	brne	.+36     	; 0xf78 <__vector_18+0x62>
			if(CANSTMOB & ( 1 << RXOK)){	//obiór SYNC-a
     f54:	80 91 ee 00 	lds	r24, 0x00EE	; 0x8000ee <__TEXT_REGION_LENGTH__+0x7e00ee>
     f58:	85 ff       	sbrs	r24, 5
     f5a:	05 c0       	rjmp	.+10     	; 0xf66 <__vector_18+0x50>
				SET_FLAG(can_state.flags, CAN_FLAG_SYNC_RECEIVED);				//ustaw flagê ob³sugi synca
     f5c:	80 91 72 02 	lds	r24, 0x0272	; 0x800272 <can_state>
     f60:	82 60       	ori	r24, 0x02	; 2
     f62:	80 93 72 02 	sts	0x0272, r24	; 0x800272 <can_state>
			}
			CANSTMOB=0x00;
     f66:	10 92 ee 00 	sts	0x00EE, r1	; 0x8000ee <__TEXT_REGION_LENGTH__+0x7e00ee>
			CANCDMOB = 0x00;			//restart MOB-a
     f6a:	ef ee       	ldi	r30, 0xEF	; 239
     f6c:	f0 e0       	ldi	r31, 0x00	; 0
     f6e:	10 82       	st	Z, r1
			CANCDMOB |= RECEPTION;		
     f70:	80 81       	ld	r24, Z
     f72:	80 68       	ori	r24, 0x80	; 128
     f74:	80 83       	st	Z, r24
     f76:	5f c0       	rjmp	.+190    	; 0x1036 <__vector_18+0x120>
		}
		
		else if((CANPAGE>>4) == MOb_1){ //RPDO 1 - odbiera
     f78:	80 91 ed 00 	lds	r24, 0x00ED	; 0x8000ed <__TEXT_REGION_LENGTH__+0x7e00ed>
     f7c:	82 95       	swap	r24
     f7e:	8f 70       	andi	r24, 0x0F	; 15
     f80:	81 30       	cpi	r24, 0x01	; 1
     f82:	d1 f4       	brne	.+52     	; 0xfb8 <__vector_18+0xa2>
			if(CANSTMOB & ( 1 << RXOK)){	//
     f84:	80 91 ee 00 	lds	r24, 0x00EE	; 0x8000ee <__TEXT_REGION_LENGTH__+0x7e00ee>
     f88:	85 ff       	sbrs	r24, 5
     f8a:	0d c0       	rjmp	.+26     	; 0xfa6 <__vector_18+0x90>
     f8c:	80 e0       	ldi	r24, 0x00	; 0
     f8e:	90 e0       	ldi	r25, 0x00	; 0
				for(uint8_t byte_nr=0; byte_nr<8; byte_nr++ ){//przepisanie danych z rejestru do tablicy
					MOb_data[MOb_1][byte_nr] = CANMSG;
     f90:	aa ef       	ldi	r26, 0xFA	; 250
     f92:	b0 e0       	ldi	r27, 0x00	; 0
     f94:	2c 91       	ld	r18, X
     f96:	fc 01       	movw	r30, r24
     f98:	e1 58       	subi	r30, 0x81	; 129
     f9a:	fd 4f       	sbci	r31, 0xFD	; 253
     f9c:	20 87       	std	Z+8, r18	; 0x08
     f9e:	01 96       	adiw	r24, 0x01	; 1
			CANCDMOB |= RECEPTION;		
		}
		
		else if((CANPAGE>>4) == MOb_1){ //RPDO 1 - odbiera
			if(CANSTMOB & ( 1 << RXOK)){	//
				for(uint8_t byte_nr=0; byte_nr<8; byte_nr++ ){//przepisanie danych z rejestru do tablicy
     fa0:	88 30       	cpi	r24, 0x08	; 8
     fa2:	91 05       	cpc	r25, r1
     fa4:	b9 f7       	brne	.-18     	; 0xf94 <__vector_18+0x7e>
					MOb_data[MOb_1][byte_nr] = CANMSG;
				}		
			}
			CANSTMOB=0x00;
     fa6:	10 92 ee 00 	sts	0x00EE, r1	; 0x8000ee <__TEXT_REGION_LENGTH__+0x7e00ee>
			CANCDMOB = 0x00;			//restart MOB-a
     faa:	ef ee       	ldi	r30, 0xEF	; 239
     fac:	f0 e0       	ldi	r31, 0x00	; 0
     fae:	10 82       	st	Z, r1
			CANCDMOB |= RECEPTION;
     fb0:	80 81       	ld	r24, Z
     fb2:	80 68       	ori	r24, 0x80	; 128
     fb4:	80 83       	st	Z, r24
     fb6:	3f c0       	rjmp	.+126    	; 0x1036 <__vector_18+0x120>
		}
		
		//czyszczenie flag przerwania dla paczek nadaj¹cych
		else if((CANPAGE>>4) == MOb_2){//TPDO 1
     fb8:	80 91 ed 00 	lds	r24, 0x00ED	; 0x8000ed <__TEXT_REGION_LENGTH__+0x7e00ed>
     fbc:	82 95       	swap	r24
     fbe:	8f 70       	andi	r24, 0x0F	; 15
     fc0:	82 30       	cpi	r24, 0x02	; 2
     fc2:	19 f4       	brne	.+6      	; 0xfca <__vector_18+0xb4>
			CANSTMOB=0x00;
     fc4:	10 92 ee 00 	sts	0x00EE, r1	; 0x8000ee <__TEXT_REGION_LENGTH__+0x7e00ee>
     fc8:	36 c0       	rjmp	.+108    	; 0x1036 <__vector_18+0x120>
		}
		
		else if((CANPAGE>>4) == MOb_3){//TPDO 2
     fca:	80 91 ed 00 	lds	r24, 0x00ED	; 0x8000ed <__TEXT_REGION_LENGTH__+0x7e00ed>
     fce:	82 95       	swap	r24
     fd0:	8f 70       	andi	r24, 0x0F	; 15
     fd2:	83 30       	cpi	r24, 0x03	; 3
     fd4:	19 f4       	brne	.+6      	; 0xfdc <__vector_18+0xc6>
			CANSTMOB=0x00;
     fd6:	10 92 ee 00 	sts	0x00EE, r1	; 0x8000ee <__TEXT_REGION_LENGTH__+0x7e00ee>
     fda:	2d c0       	rjmp	.+90     	; 0x1036 <__vector_18+0x120>
		}
		
		else if((CANPAGE>>4) == MOb_4){//SDO TX
     fdc:	80 91 ed 00 	lds	r24, 0x00ED	; 0x8000ed <__TEXT_REGION_LENGTH__+0x7e00ed>
     fe0:	82 95       	swap	r24
     fe2:	8f 70       	andi	r24, 0x0F	; 15
     fe4:	84 30       	cpi	r24, 0x04	; 4
     fe6:	19 f4       	brne	.+6      	; 0xfee <__vector_18+0xd8>
			CANSTMOB=0x00;
     fe8:	10 92 ee 00 	sts	0x00EE, r1	; 0x8000ee <__TEXT_REGION_LENGTH__+0x7e00ee>
     fec:	24 c0       	rjmp	.+72     	; 0x1036 <__vector_18+0x120>
		}
		
		else if((CANPAGE>>4) == MOb_5){ //SDO RX - odbiera
     fee:	80 91 ed 00 	lds	r24, 0x00ED	; 0x8000ed <__TEXT_REGION_LENGTH__+0x7e00ed>
     ff2:	82 95       	swap	r24
     ff4:	8f 70       	andi	r24, 0x0F	; 15
     ff6:	85 30       	cpi	r24, 0x05	; 5
     ff8:	f1 f4       	brne	.+60     	; 0x1036 <__vector_18+0x120>
			if(CANSTMOB & ( 1 << RXOK)){	
     ffa:	80 91 ee 00 	lds	r24, 0x00EE	; 0x8000ee <__TEXT_REGION_LENGTH__+0x7e00ee>
     ffe:	85 ff       	sbrs	r24, 5
    1000:	0d c0       	rjmp	.+26     	; 0x101c <__vector_18+0x106>
    1002:	80 e0       	ldi	r24, 0x00	; 0
    1004:	90 e0       	ldi	r25, 0x00	; 0
				for(uint8_t byte_nr=0; byte_nr<8; byte_nr++ ){//przepisanie danych z rejestru do tablicy
					MOb_data[MOb_5][byte_nr] = CANMSG;
    1006:	aa ef       	ldi	r26, 0xFA	; 250
    1008:	b0 e0       	ldi	r27, 0x00	; 0
    100a:	2c 91       	ld	r18, X
    100c:	fc 01       	movw	r30, r24
    100e:	e1 58       	subi	r30, 0x81	; 129
    1010:	fd 4f       	sbci	r31, 0xFD	; 253
    1012:	20 a7       	std	Z+40, r18	; 0x28
    1014:	01 96       	adiw	r24, 0x01	; 1
			CANSTMOB=0x00;
		}
		
		else if((CANPAGE>>4) == MOb_5){ //SDO RX - odbiera
			if(CANSTMOB & ( 1 << RXOK)){	
				for(uint8_t byte_nr=0; byte_nr<8; byte_nr++ ){//przepisanie danych z rejestru do tablicy
    1016:	88 30       	cpi	r24, 0x08	; 8
    1018:	91 05       	cpc	r25, r1
    101a:	b9 f7       	brne	.-18     	; 0x100a <__vector_18+0xf4>
					MOb_data[MOb_5][byte_nr] = CANMSG;
				}
			}
			SET_FLAG(can_state.flags, CAN_FLAG_SDO_RECEIVED);
    101c:	80 91 72 02 	lds	r24, 0x0272	; 0x800272 <can_state>
    1020:	88 60       	ori	r24, 0x08	; 8
    1022:	80 93 72 02 	sts	0x0272, r24	; 0x800272 <can_state>
			CANSTMOB=0x00;
    1026:	10 92 ee 00 	sts	0x00EE, r1	; 0x8000ee <__TEXT_REGION_LENGTH__+0x7e00ee>
			CANCDMOB = 0x00;			//restart MOB-a
    102a:	ef ee       	ldi	r30, 0xEF	; 239
    102c:	f0 e0       	ldi	r31, 0x00	; 0
    102e:	10 82       	st	Z, r1
			CANCDMOB |= RECEPTION;
    1030:	80 81       	ld	r24, Z
    1032:	80 68       	ori	r24, 0x80	; 128
    1034:	80 83       	st	Z, r24
		}

} 
    1036:	ff 91       	pop	r31
    1038:	ef 91       	pop	r30
    103a:	bf 91       	pop	r27
    103c:	af 91       	pop	r26
    103e:	9f 91       	pop	r25
    1040:	8f 91       	pop	r24
    1042:	2f 91       	pop	r18
    1044:	0f 90       	pop	r0
    1046:	0f be       	out	0x3f, r0	; 63
    1048:	0f 90       	pop	r0
    104a:	1f 90       	pop	r1
    104c:	18 95       	reti

0000104e <CAN_send_SDO>:
		else mob++;
	}
}

void CAN_send_SDO(){
		CANPAGE = ( MOb_SDO_TX << 4 );						// Selects Message Object 0-5
    104e:	80 e4       	ldi	r24, 0x40	; 64
    1050:	80 93 ed 00 	sts	0x00ED, r24	; 0x8000ed <__TEXT_REGION_LENGTH__+0x7e00ed>
		if((CANEN2 & ( 1 << MOb_SDO_TX )) == 0){		//Jeœli MOb jest wolny
    1054:	80 91 dc 00 	lds	r24, 0x00DC	; 0x8000dc <__TEXT_REGION_LENGTH__+0x7e00dc>
    1058:	84 fd       	sbrc	r24, 4
    105a:	0d c0       	rjmp	.+26     	; 0x1076 <CAN_send_SDO+0x28>
    105c:	80 e0       	ldi	r24, 0x00	; 0
    105e:	90 e0       	ldi	r25, 0x00	; 0
			for(uint8_t byte_nr=0; byte_nr<8; byte_nr++  ){
				CANMSG = MOb_data[MOb_SDO_TX][byte_nr];
    1060:	aa ef       	ldi	r26, 0xFA	; 250
    1062:	b0 e0       	ldi	r27, 0x00	; 0
    1064:	fc 01       	movw	r30, r24
    1066:	e1 58       	subi	r30, 0x81	; 129
    1068:	fd 4f       	sbci	r31, 0xFD	; 253
    106a:	20 a1       	ldd	r18, Z+32	; 0x20
    106c:	2c 93       	st	X, r18
    106e:	01 96       	adiw	r24, 0x01	; 1
}

void CAN_send_SDO(){
		CANPAGE = ( MOb_SDO_TX << 4 );						// Selects Message Object 0-5
		if((CANEN2 & ( 1 << MOb_SDO_TX )) == 0){		//Jeœli MOb jest wolny
			for(uint8_t byte_nr=0; byte_nr<8; byte_nr++  ){
    1070:	88 30       	cpi	r24, 0x08	; 8
    1072:	91 05       	cpc	r25, r1
    1074:	b9 f7       	brne	.-18     	; 0x1064 <CAN_send_SDO+0x16>
				CANMSG = MOb_data[MOb_SDO_TX][byte_nr];
			}
		}
		//czyszczenie rejestru statusu
		CANSTMOB = 0x00;
    1076:	10 92 ee 00 	sts	0x00EE, r1	; 0x8000ee <__TEXT_REGION_LENGTH__+0x7e00ee>
		//komenda nadania
		CANCDMOB = TRANSMISSION | ( 8 << DLC0);//zleæ transmisjê 8 bajtów
    107a:	88 e4       	ldi	r24, 0x48	; 72
    107c:	80 93 ef 00 	sts	0x00EF, r24	; 0x8000ef <__TEXT_REGION_LENGTH__+0x7e00ef>
    1080:	08 95       	ret

00001082 <CAN_task>:
}*/

void CAN_task(){
	
	//obs³uga SDO
	if( HAS_FLAG(can_state.flags, CAN_FLAG_SDO_RECEIVED) ){
    1082:	80 91 72 02 	lds	r24, 0x0272	; 0x800272 <can_state>
    1086:	83 ff       	sbrs	r24, 3
    1088:	3d c3       	rjmp	.+1658   	; 0x1704 <CAN_task+0x682>
		
		if(SDO_RX_COMMAND == SDO_READ_COMMAND){//gdy komenda odczytu
    108a:	80 91 a7 02 	lds	r24, 0x02A7	; 0x8002a7 <MOb_data+0x28>
    108e:	80 34       	cpi	r24, 0x40	; 64
    1090:	09 f0       	breq	.+2      	; 0x1094 <CAN_task+0x12>
    1092:	b2 c1       	rjmp	.+868    	; 0x13f8 <CAN_task+0x376>
			switch (SDO_RX_INDEX){//sprawdzanie po indexie
    1094:	af e7       	ldi	r26, 0x7F	; 127
    1096:	b2 e0       	ldi	r27, 0x02	; 2
    1098:	99 96       	adiw	r26, 0x29	; 41
    109a:	ec 91       	ld	r30, X
    109c:	99 97       	sbiw	r26, 0x29	; 41
    109e:	9a 96       	adiw	r26, 0x2a	; 42
    10a0:	8c 91       	ld	r24, X
    10a2:	f0 e0       	ldi	r31, 0x00	; 0
    10a4:	f8 2b       	or	r31, r24
    10a6:	f0 52       	subi	r31, 0x20	; 32
    10a8:	e8 30       	cpi	r30, 0x08	; 8
    10aa:	f1 05       	cpc	r31, r1
    10ac:	08 f0       	brcs	.+2      	; 0x10b0 <CAN_task+0x2e>
    10ae:	69 c1       	rjmp	.+722    	; 0x1382 <CAN_task+0x300>
    10b0:	e2 5c       	subi	r30, 0xC2	; 194
    10b2:	ff 4f       	sbci	r31, 0xFF	; 255
    10b4:	0c 94 80 0e 	jmp	0x1d00	; 0x1d00 <__tablejump2__>
				
				case 0x2000:
					SET_FLAG(can_state.flags, CAN_FLAG_DATA_LENGTH_16);
    10b8:	80 91 72 02 	lds	r24, 0x0272	; 0x800272 <can_state>
    10bc:	80 62       	ori	r24, 0x20	; 32
    10be:	80 93 72 02 	sts	0x0272, r24	; 0x800272 <can_state>
					switch(SDO_RX_SUBINDEX){ //sprawdzanie po subindexie
    10c2:	80 91 aa 02 	lds	r24, 0x02AA	; 0x8002aa <MOb_data+0x2b>
    10c6:	81 30       	cpi	r24, 0x01	; 1
    10c8:	69 f0       	breq	.+26     	; 0x10e4 <CAN_task+0x62>
    10ca:	18 f0       	brcs	.+6      	; 0x10d2 <CAN_task+0x50>
    10cc:	82 30       	cpi	r24, 0x02	; 2
    10ce:	99 f0       	breq	.+38     	; 0x10f6 <CAN_task+0x74>
    10d0:	1b c0       	rjmp	.+54     	; 0x1108 <CAN_task+0x86>
						case 0x00:
							SDO_TX_DATA_1 = adc_results.raw_board_position;
    10d2:	eb ed       	ldi	r30, 0xDB	; 219
    10d4:	f1 e0       	ldi	r31, 0x01	; 1
    10d6:	94 81       	ldd	r25, Z+4	; 0x04
    10d8:	85 81       	ldd	r24, Z+5	; 0x05
    10da:	ef e7       	ldi	r30, 0x7F	; 127
    10dc:	f2 e0       	ldi	r31, 0x02	; 2
    10de:	94 a3       	std	Z+36, r25	; 0x24
							SDO_TX_DATA_2 = adc_results.raw_board_position >> 8;
    10e0:	85 a3       	std	Z+37, r24	; 0x25
						break;
    10e2:	54 c1       	rjmp	.+680    	; 0x138c <CAN_task+0x30a>
						
						case 0x01:
							SDO_TX_DATA_1 = adc_results.raw_current;
    10e4:	eb ed       	ldi	r30, 0xDB	; 219
    10e6:	f1 e0       	ldi	r31, 0x01	; 1
    10e8:	90 81       	ld	r25, Z
    10ea:	81 81       	ldd	r24, Z+1	; 0x01
    10ec:	ef e7       	ldi	r30, 0x7F	; 127
    10ee:	f2 e0       	ldi	r31, 0x02	; 2
    10f0:	94 a3       	std	Z+36, r25	; 0x24
							SDO_TX_DATA_2 = adc_results.raw_current >> 8;
    10f2:	85 a3       	std	Z+37, r24	; 0x25
						break;
    10f4:	4b c1       	rjmp	.+662    	; 0x138c <CAN_task+0x30a>
						
						case 0x02:
							SDO_TX_DATA_1 = adc_results.raw_voltage;
    10f6:	eb ed       	ldi	r30, 0xDB	; 219
    10f8:	f1 e0       	ldi	r31, 0x01	; 1
    10fa:	92 81       	ldd	r25, Z+2	; 0x02
    10fc:	83 81       	ldd	r24, Z+3	; 0x03
    10fe:	ef e7       	ldi	r30, 0x7F	; 127
    1100:	f2 e0       	ldi	r31, 0x02	; 2
    1102:	94 a3       	std	Z+36, r25	; 0x24
							SDO_TX_DATA_2 = adc_results.raw_voltage >> 8;
    1104:	85 a3       	std	Z+37, r24	; 0x25
						break;
    1106:	42 c1       	rjmp	.+644    	; 0x138c <CAN_task+0x30a>
						
						default:
							SET_FLAG(can_state.flags, CAN_FLAG_COMMAND_FAILED);
    1108:	80 91 72 02 	lds	r24, 0x0272	; 0x800272 <can_state>
    110c:	80 61       	ori	r24, 0x10	; 16
    110e:	80 93 72 02 	sts	0x0272, r24	; 0x800272 <can_state>
    1112:	3c c1       	rjmp	.+632    	; 0x138c <CAN_task+0x30a>
					}
				break;
				
				case 0x2001:
					SET_FLAG(can_state.flags, CAN_FLAG_DATA_LENGTH_16);
    1114:	80 91 72 02 	lds	r24, 0x0272	; 0x800272 <can_state>
    1118:	80 62       	ori	r24, 0x20	; 32
    111a:	80 93 72 02 	sts	0x0272, r24	; 0x800272 <can_state>
					switch(SDO_RX_SUBINDEX){
    111e:	80 91 aa 02 	lds	r24, 0x02AA	; 0x8002aa <MOb_data+0x2b>
    1122:	81 30       	cpi	r24, 0x01	; 1
    1124:	79 f0       	breq	.+30     	; 0x1144 <CAN_task+0xc2>
    1126:	28 f0       	brcs	.+10     	; 0x1132 <CAN_task+0xb0>
    1128:	82 30       	cpi	r24, 0x02	; 2
    112a:	a9 f0       	breq	.+42     	; 0x1156 <CAN_task+0xd4>
    112c:	83 30       	cpi	r24, 0x03	; 3
    112e:	e1 f0       	breq	.+56     	; 0x1168 <CAN_task+0xe6>
    1130:	24 c0       	rjmp	.+72     	; 0x117a <CAN_task+0xf8>
						
						case 0x00:
							SDO_TX_DATA_1 = non_volatile_data.adc_board_position_offset;
    1132:	ea e4       	ldi	r30, 0x4A	; 74
    1134:	f2 e0       	ldi	r31, 0x02	; 2
    1136:	90 81       	ld	r25, Z
    1138:	81 81       	ldd	r24, Z+1	; 0x01
    113a:	ef e7       	ldi	r30, 0x7F	; 127
    113c:	f2 e0       	ldi	r31, 0x02	; 2
    113e:	94 a3       	std	Z+36, r25	; 0x24
							SDO_TX_DATA_2 = non_volatile_data.adc_board_position_offset >> 8;
    1140:	85 a3       	std	Z+37, r24	; 0x25
						break;
    1142:	24 c1       	rjmp	.+584    	; 0x138c <CAN_task+0x30a>
						
						case 0x01:
							SDO_TX_DATA_1 = non_volatile_data.adc_board_position_scale;
    1144:	ea e4       	ldi	r30, 0x4A	; 74
    1146:	f2 e0       	ldi	r31, 0x02	; 2
    1148:	92 81       	ldd	r25, Z+2	; 0x02
    114a:	83 81       	ldd	r24, Z+3	; 0x03
    114c:	ef e7       	ldi	r30, 0x7F	; 127
    114e:	f2 e0       	ldi	r31, 0x02	; 2
    1150:	94 a3       	std	Z+36, r25	; 0x24
							SDO_TX_DATA_2 = non_volatile_data.adc_board_position_scale >> 8;
    1152:	85 a3       	std	Z+37, r24	; 0x25
						break;
    1154:	1b c1       	rjmp	.+566    	; 0x138c <CAN_task+0x30a>
						
						case 0x02:
							SDO_TX_DATA_1 = non_volatile_data.adc_board_position_max;
    1156:	ea e4       	ldi	r30, 0x4A	; 74
    1158:	f2 e0       	ldi	r31, 0x02	; 2
    115a:	94 81       	ldd	r25, Z+4	; 0x04
    115c:	85 81       	ldd	r24, Z+5	; 0x05
    115e:	ef e7       	ldi	r30, 0x7F	; 127
    1160:	f2 e0       	ldi	r31, 0x02	; 2
    1162:	94 a3       	std	Z+36, r25	; 0x24
							SDO_TX_DATA_2 = non_volatile_data.adc_board_position_max >> 8;
    1164:	85 a3       	std	Z+37, r24	; 0x25
						break;
    1166:	12 c1       	rjmp	.+548    	; 0x138c <CAN_task+0x30a>
						
						case 0x03:
							SDO_TX_DATA_1 = non_volatile_data.adc_board_position_min;
    1168:	ea e4       	ldi	r30, 0x4A	; 74
    116a:	f2 e0       	ldi	r31, 0x02	; 2
    116c:	96 81       	ldd	r25, Z+6	; 0x06
    116e:	87 81       	ldd	r24, Z+7	; 0x07
    1170:	ef e7       	ldi	r30, 0x7F	; 127
    1172:	f2 e0       	ldi	r31, 0x02	; 2
    1174:	94 a3       	std	Z+36, r25	; 0x24
							SDO_TX_DATA_2 = non_volatile_data.adc_board_position_min >> 8;
    1176:	85 a3       	std	Z+37, r24	; 0x25
						break;
    1178:	09 c1       	rjmp	.+530    	; 0x138c <CAN_task+0x30a>
						
						default:
							SET_FLAG(can_state.flags, CAN_FLAG_COMMAND_FAILED);
    117a:	80 91 72 02 	lds	r24, 0x0272	; 0x800272 <can_state>
    117e:	80 61       	ori	r24, 0x10	; 16
    1180:	80 93 72 02 	sts	0x0272, r24	; 0x800272 <can_state>
    1184:	03 c1       	rjmp	.+518    	; 0x138c <CAN_task+0x30a>
					}
				break;
				
				case 0x2002:
					SET_FLAG(can_state.flags, CAN_FLAG_DATA_LENGTH_16);
    1186:	80 91 72 02 	lds	r24, 0x0272	; 0x800272 <can_state>
    118a:	80 62       	ori	r24, 0x20	; 32
    118c:	80 93 72 02 	sts	0x0272, r24	; 0x800272 <can_state>
					switch(SDO_RX_SUBINDEX){
    1190:	80 91 aa 02 	lds	r24, 0x02AA	; 0x8002aa <MOb_data+0x2b>
    1194:	88 23       	and	r24, r24
    1196:	19 f0       	breq	.+6      	; 0x119e <CAN_task+0x11c>
    1198:	81 30       	cpi	r24, 0x01	; 1
    119a:	51 f0       	breq	.+20     	; 0x11b0 <CAN_task+0x12e>
    119c:	12 c0       	rjmp	.+36     	; 0x11c2 <CAN_task+0x140>
						case 0x00:
							SDO_TX_DATA_1 = non_volatile_data.adc_current_offset;
    119e:	ea e4       	ldi	r30, 0x4A	; 74
    11a0:	f2 e0       	ldi	r31, 0x02	; 2
    11a2:	90 85       	ldd	r25, Z+8	; 0x08
    11a4:	81 85       	ldd	r24, Z+9	; 0x09
    11a6:	ef e7       	ldi	r30, 0x7F	; 127
    11a8:	f2 e0       	ldi	r31, 0x02	; 2
    11aa:	94 a3       	std	Z+36, r25	; 0x24
							SDO_TX_DATA_2 = non_volatile_data.adc_current_offset >> 8;
    11ac:	85 a3       	std	Z+37, r24	; 0x25
						break;
    11ae:	ee c0       	rjmp	.+476    	; 0x138c <CAN_task+0x30a>
					
						case 0x01:
							SDO_TX_DATA_1 = non_volatile_data.adc_current_scale;
    11b0:	ea e4       	ldi	r30, 0x4A	; 74
    11b2:	f2 e0       	ldi	r31, 0x02	; 2
    11b4:	92 85       	ldd	r25, Z+10	; 0x0a
    11b6:	83 85       	ldd	r24, Z+11	; 0x0b
    11b8:	ef e7       	ldi	r30, 0x7F	; 127
    11ba:	f2 e0       	ldi	r31, 0x02	; 2
    11bc:	94 a3       	std	Z+36, r25	; 0x24
							SDO_TX_DATA_2 = non_volatile_data.adc_current_scale >> 8;
    11be:	85 a3       	std	Z+37, r24	; 0x25
						break;
    11c0:	e5 c0       	rjmp	.+458    	; 0x138c <CAN_task+0x30a>
					
						default:
							SET_FLAG(can_state.flags, CAN_FLAG_COMMAND_FAILED);
    11c2:	80 91 72 02 	lds	r24, 0x0272	; 0x800272 <can_state>
    11c6:	80 61       	ori	r24, 0x10	; 16
    11c8:	80 93 72 02 	sts	0x0272, r24	; 0x800272 <can_state>
    11cc:	df c0       	rjmp	.+446    	; 0x138c <CAN_task+0x30a>
					}
				break;
				
				case 0x2003:
					SET_FLAG(can_state.flags, CAN_FLAG_DATA_LENGTH_16);
    11ce:	80 91 72 02 	lds	r24, 0x0272	; 0x800272 <can_state>
    11d2:	80 62       	ori	r24, 0x20	; 32
    11d4:	80 93 72 02 	sts	0x0272, r24	; 0x800272 <can_state>
					switch(SDO_RX_SUBINDEX){
    11d8:	80 91 aa 02 	lds	r24, 0x02AA	; 0x8002aa <MOb_data+0x2b>
    11dc:	88 23       	and	r24, r24
    11de:	19 f0       	breq	.+6      	; 0x11e6 <CAN_task+0x164>
    11e0:	81 30       	cpi	r24, 0x01	; 1
    11e2:	51 f0       	breq	.+20     	; 0x11f8 <CAN_task+0x176>
    11e4:	12 c0       	rjmp	.+36     	; 0x120a <CAN_task+0x188>
						case 0x00:
							SDO_TX_DATA_1 = non_volatile_data.adc_voltage_offset;
    11e6:	ea e4       	ldi	r30, 0x4A	; 74
    11e8:	f2 e0       	ldi	r31, 0x02	; 2
    11ea:	94 85       	ldd	r25, Z+12	; 0x0c
    11ec:	85 85       	ldd	r24, Z+13	; 0x0d
    11ee:	ef e7       	ldi	r30, 0x7F	; 127
    11f0:	f2 e0       	ldi	r31, 0x02	; 2
    11f2:	94 a3       	std	Z+36, r25	; 0x24
							SDO_TX_DATA_2 = non_volatile_data.adc_voltage_offset >> 8;
    11f4:	85 a3       	std	Z+37, r24	; 0x25
						break;
    11f6:	ca c0       	rjmp	.+404    	; 0x138c <CAN_task+0x30a>
					
						case 0x01:
							SDO_TX_DATA_1 = non_volatile_data.adc_voltage_scale;
    11f8:	ea e4       	ldi	r30, 0x4A	; 74
    11fa:	f2 e0       	ldi	r31, 0x02	; 2
    11fc:	96 85       	ldd	r25, Z+14	; 0x0e
    11fe:	87 85       	ldd	r24, Z+15	; 0x0f
    1200:	ef e7       	ldi	r30, 0x7F	; 127
    1202:	f2 e0       	ldi	r31, 0x02	; 2
    1204:	94 a3       	std	Z+36, r25	; 0x24
							SDO_TX_DATA_2 = non_volatile_data.adc_voltage_scale >> 8;
    1206:	85 a3       	std	Z+37, r24	; 0x25
						break;
    1208:	c1 c0       	rjmp	.+386    	; 0x138c <CAN_task+0x30a>
					
						default:
							SET_FLAG(can_state.flags, CAN_FLAG_COMMAND_FAILED);
    120a:	80 91 72 02 	lds	r24, 0x0272	; 0x800272 <can_state>
    120e:	80 61       	ori	r24, 0x10	; 16
    1210:	80 93 72 02 	sts	0x0272, r24	; 0x800272 <can_state>
    1214:	bb c0       	rjmp	.+374    	; 0x138c <CAN_task+0x30a>
					}
				break;
				
				case 0x2004:
					SET_FLAG(can_state.flags, CAN_FLAG_DATA_LENGTH_8);
    1216:	80 91 72 02 	lds	r24, 0x0272	; 0x800272 <can_state>
    121a:	80 61       	ori	r24, 0x10	; 16
    121c:	80 93 72 02 	sts	0x0272, r24	; 0x800272 <can_state>
					switch(SDO_RX_SUBINDEX){
    1220:	80 91 aa 02 	lds	r24, 0x02AA	; 0x8002aa <MOb_data+0x2b>
    1224:	88 23       	and	r24, r24
    1226:	19 f0       	breq	.+6      	; 0x122e <CAN_task+0x1ac>
    1228:	81 30       	cpi	r24, 0x01	; 1
    122a:	31 f0       	breq	.+12     	; 0x1238 <CAN_task+0x1b6>
    122c:	0a c0       	rjmp	.+20     	; 0x1242 <CAN_task+0x1c0>
						case 0x00:
							SDO_TX_DATA_1 = non_volatile_data.winch_overcurrent_value;
    122e:	80 91 5a 02 	lds	r24, 0x025A	; 0x80025a <non_volatile_data+0x10>
    1232:	80 93 a3 02 	sts	0x02A3, r24	; 0x8002a3 <MOb_data+0x24>
						break;
    1236:	aa c0       	rjmp	.+340    	; 0x138c <CAN_task+0x30a>
					
						case 0x01:
							SDO_TX_DATA_1 = non_volatile_data.board_overcurrent_value;
    1238:	80 91 5b 02 	lds	r24, 0x025B	; 0x80025b <non_volatile_data+0x11>
    123c:	80 93 a3 02 	sts	0x02A3, r24	; 0x8002a3 <MOb_data+0x24>
						break;
    1240:	a5 c0       	rjmp	.+330    	; 0x138c <CAN_task+0x30a>
					
						default:
							SET_FLAG(can_state.flags, CAN_FLAG_COMMAND_FAILED);
    1242:	80 91 72 02 	lds	r24, 0x0272	; 0x800272 <can_state>
    1246:	80 61       	ori	r24, 0x10	; 16
    1248:	80 93 72 02 	sts	0x0272, r24	; 0x800272 <can_state>
    124c:	9f c0       	rjmp	.+318    	; 0x138c <CAN_task+0x30a>
					}
				break;
				
				case 0x2005:
					SET_FLAG(can_state.flags, CAN_FLAG_DATA_LENGTH_16);
    124e:	80 91 72 02 	lds	r24, 0x0272	; 0x800272 <can_state>
    1252:	80 62       	ori	r24, 0x20	; 32
    1254:	80 93 72 02 	sts	0x0272, r24	; 0x800272 <can_state>
					switch(SDO_RX_SUBINDEX){
    1258:	80 91 aa 02 	lds	r24, 0x02AA	; 0x8002aa <MOb_data+0x2b>
    125c:	81 30       	cpi	r24, 0x01	; 1
    125e:	79 f0       	breq	.+30     	; 0x127e <CAN_task+0x1fc>
    1260:	28 f0       	brcs	.+10     	; 0x126c <CAN_task+0x1ea>
    1262:	82 30       	cpi	r24, 0x02	; 2
    1264:	a9 f0       	breq	.+42     	; 0x1290 <CAN_task+0x20e>
    1266:	83 30       	cpi	r24, 0x03	; 3
    1268:	e1 f0       	breq	.+56     	; 0x12a2 <CAN_task+0x220>
    126a:	24 c0       	rjmp	.+72     	; 0x12b4 <CAN_task+0x232>
						case 0x00:
							SDO_TX_DATA_1 = non_volatile_data.torque_init_val_winch_up;
    126c:	ea e4       	ldi	r30, 0x4A	; 74
    126e:	f2 e0       	ldi	r31, 0x02	; 2
    1270:	92 89       	ldd	r25, Z+18	; 0x12
    1272:	83 89       	ldd	r24, Z+19	; 0x13
    1274:	ef e7       	ldi	r30, 0x7F	; 127
    1276:	f2 e0       	ldi	r31, 0x02	; 2
    1278:	94 a3       	std	Z+36, r25	; 0x24
							SDO_TX_DATA_2 = non_volatile_data.torque_init_val_winch_up >> 8;
    127a:	85 a3       	std	Z+37, r24	; 0x25
						break;
    127c:	87 c0       	rjmp	.+270    	; 0x138c <CAN_task+0x30a>
					
						case 0x01:
							SDO_TX_DATA_1 = non_volatile_data.torque_init_val_winch_down;
    127e:	ea e4       	ldi	r30, 0x4A	; 74
    1280:	f2 e0       	ldi	r31, 0x02	; 2
    1282:	94 89       	ldd	r25, Z+20	; 0x14
    1284:	85 89       	ldd	r24, Z+21	; 0x15
    1286:	ef e7       	ldi	r30, 0x7F	; 127
    1288:	f2 e0       	ldi	r31, 0x02	; 2
    128a:	94 a3       	std	Z+36, r25	; 0x24
							SDO_TX_DATA_2 = non_volatile_data.torque_init_val_winch_down >> 8;
    128c:	85 a3       	std	Z+37, r24	; 0x25
						break;
    128e:	7e c0       	rjmp	.+252    	; 0x138c <CAN_task+0x30a>
						
						case 0x02:
							SDO_TX_DATA_1 = non_volatile_data.torque_init_val_board_up;
    1290:	ea e4       	ldi	r30, 0x4A	; 74
    1292:	f2 e0       	ldi	r31, 0x02	; 2
    1294:	96 89       	ldd	r25, Z+22	; 0x16
    1296:	87 89       	ldd	r24, Z+23	; 0x17
    1298:	ef e7       	ldi	r30, 0x7F	; 127
    129a:	f2 e0       	ldi	r31, 0x02	; 2
    129c:	94 a3       	std	Z+36, r25	; 0x24
							SDO_TX_DATA_2 = non_volatile_data.torque_init_val_board_up >> 8;
    129e:	85 a3       	std	Z+37, r24	; 0x25
						break;
    12a0:	75 c0       	rjmp	.+234    	; 0x138c <CAN_task+0x30a>
					
						case 0x03:
							SDO_TX_DATA_1 = non_volatile_data.torque_init_val_board_down;
    12a2:	ea e4       	ldi	r30, 0x4A	; 74
    12a4:	f2 e0       	ldi	r31, 0x02	; 2
    12a6:	90 8d       	ldd	r25, Z+24	; 0x18
    12a8:	81 8d       	ldd	r24, Z+25	; 0x19
    12aa:	ef e7       	ldi	r30, 0x7F	; 127
    12ac:	f2 e0       	ldi	r31, 0x02	; 2
    12ae:	94 a3       	std	Z+36, r25	; 0x24
							SDO_TX_DATA_2 = non_volatile_data.torque_init_val_board_down >> 8;
    12b0:	85 a3       	std	Z+37, r24	; 0x25
						break;
    12b2:	6c c0       	rjmp	.+216    	; 0x138c <CAN_task+0x30a>
						
						default:
							SET_FLAG(can_state.flags, CAN_FLAG_COMMAND_FAILED);
    12b4:	80 91 72 02 	lds	r24, 0x0272	; 0x800272 <can_state>
    12b8:	80 61       	ori	r24, 0x10	; 16
    12ba:	80 93 72 02 	sts	0x0272, r24	; 0x800272 <can_state>
    12be:	66 c0       	rjmp	.+204    	; 0x138c <CAN_task+0x30a>
					}
				break;
				
				case 0x2006:
					SET_FLAG(can_state.flags, CAN_FLAG_DATA_LENGTH_8);
    12c0:	80 91 72 02 	lds	r24, 0x0272	; 0x800272 <can_state>
    12c4:	80 61       	ori	r24, 0x10	; 16
    12c6:	80 93 72 02 	sts	0x0272, r24	; 0x800272 <can_state>
					switch(SDO_RX_SUBINDEX){
    12ca:	80 91 aa 02 	lds	r24, 0x02AA	; 0x8002aa <MOb_data+0x2b>
    12ce:	81 30       	cpi	r24, 0x01	; 1
    12d0:	59 f0       	breq	.+22     	; 0x12e8 <CAN_task+0x266>
    12d2:	28 f0       	brcs	.+10     	; 0x12de <CAN_task+0x25c>
    12d4:	82 30       	cpi	r24, 0x02	; 2
    12d6:	69 f0       	breq	.+26     	; 0x12f2 <CAN_task+0x270>
    12d8:	83 30       	cpi	r24, 0x03	; 3
    12da:	81 f0       	breq	.+32     	; 0x12fc <CAN_task+0x27a>
    12dc:	14 c0       	rjmp	.+40     	; 0x1306 <CAN_task+0x284>
						case 0x00:
							SDO_TX_DATA_1 = non_volatile_data.torque_rising_speed_period_winch_up;
    12de:	80 91 64 02 	lds	r24, 0x0264	; 0x800264 <non_volatile_data+0x1a>
    12e2:	80 93 a3 02 	sts	0x02A3, r24	; 0x8002a3 <MOb_data+0x24>
						break;
    12e6:	52 c0       	rjmp	.+164    	; 0x138c <CAN_task+0x30a>
					
						case 0x01:
							SDO_TX_DATA_1 = non_volatile_data.torque_rising_speed_period_winch_down;
    12e8:	80 91 65 02 	lds	r24, 0x0265	; 0x800265 <non_volatile_data+0x1b>
    12ec:	80 93 a3 02 	sts	0x02A3, r24	; 0x8002a3 <MOb_data+0x24>
						break;
    12f0:	4d c0       	rjmp	.+154    	; 0x138c <CAN_task+0x30a>
					
						case 0x02:
							SDO_TX_DATA_1 = non_volatile_data.torque_rising_speed_period_board_up;
    12f2:	80 91 66 02 	lds	r24, 0x0266	; 0x800266 <non_volatile_data+0x1c>
    12f6:	80 93 a3 02 	sts	0x02A3, r24	; 0x8002a3 <MOb_data+0x24>
						break;
    12fa:	48 c0       	rjmp	.+144    	; 0x138c <CAN_task+0x30a>
					
						case 0x03:
							SDO_TX_DATA_1 = non_volatile_data.torque_rising_speed_period_board_down;
    12fc:	80 91 67 02 	lds	r24, 0x0267	; 0x800267 <non_volatile_data+0x1d>
    1300:	80 93 a3 02 	sts	0x02A3, r24	; 0x8002a3 <MOb_data+0x24>
						break;
    1304:	43 c0       	rjmp	.+134    	; 0x138c <CAN_task+0x30a>
					
						default:
							SET_FLAG(can_state.flags, CAN_FLAG_COMMAND_FAILED);
    1306:	80 91 72 02 	lds	r24, 0x0272	; 0x800272 <can_state>
    130a:	80 61       	ori	r24, 0x10	; 16
    130c:	80 93 72 02 	sts	0x0272, r24	; 0x800272 <can_state>
    1310:	3d c0       	rjmp	.+122    	; 0x138c <CAN_task+0x30a>
					}
				break;
				
				case 0x2007:
					SET_FLAG(can_state.flags, CAN_FLAG_DATA_LENGTH_16);
    1312:	80 91 72 02 	lds	r24, 0x0272	; 0x800272 <can_state>
    1316:	80 62       	ori	r24, 0x20	; 32
    1318:	80 93 72 02 	sts	0x0272, r24	; 0x800272 <can_state>
					switch(SDO_RX_SUBINDEX){
    131c:	80 91 aa 02 	lds	r24, 0x02AA	; 0x8002aa <MOb_data+0x2b>
    1320:	81 30       	cpi	r24, 0x01	; 1
    1322:	79 f0       	breq	.+30     	; 0x1342 <CAN_task+0x2c0>
    1324:	28 f0       	brcs	.+10     	; 0x1330 <CAN_task+0x2ae>
    1326:	82 30       	cpi	r24, 0x02	; 2
    1328:	a9 f0       	breq	.+42     	; 0x1354 <CAN_task+0x2d2>
    132a:	83 30       	cpi	r24, 0x03	; 3
    132c:	e1 f0       	breq	.+56     	; 0x1366 <CAN_task+0x2e4>
    132e:	24 c0       	rjmp	.+72     	; 0x1378 <CAN_task+0x2f6>
						case 0x00:
							SDO_TX_DATA_1 = non_volatile_data.torque_rising_speed_winch_up;
    1330:	ea e4       	ldi	r30, 0x4A	; 74
    1332:	f2 e0       	ldi	r31, 0x02	; 2
    1334:	96 8d       	ldd	r25, Z+30	; 0x1e
    1336:	87 8d       	ldd	r24, Z+31	; 0x1f
    1338:	ef e7       	ldi	r30, 0x7F	; 127
    133a:	f2 e0       	ldi	r31, 0x02	; 2
    133c:	94 a3       	std	Z+36, r25	; 0x24
							SDO_TX_DATA_2 = non_volatile_data.torque_rising_speed_winch_up >> 8;
    133e:	85 a3       	std	Z+37, r24	; 0x25
						break;
    1340:	20 c0       	rjmp	.+64     	; 0x1382 <CAN_task+0x300>
					
						case 0x01:
							SDO_TX_DATA_1 = non_volatile_data.torque_rising_speed_winch_down;
    1342:	ea e4       	ldi	r30, 0x4A	; 74
    1344:	f2 e0       	ldi	r31, 0x02	; 2
    1346:	90 a1       	ldd	r25, Z+32	; 0x20
    1348:	81 a1       	ldd	r24, Z+33	; 0x21
    134a:	ef e7       	ldi	r30, 0x7F	; 127
    134c:	f2 e0       	ldi	r31, 0x02	; 2
    134e:	94 a3       	std	Z+36, r25	; 0x24
							SDO_TX_DATA_2 = non_volatile_data.torque_rising_speed_winch_down >> 8;
    1350:	85 a3       	std	Z+37, r24	; 0x25
						break;
    1352:	17 c0       	rjmp	.+46     	; 0x1382 <CAN_task+0x300>
						
						case 0x02:
							SDO_TX_DATA_1 = non_volatile_data.torque_rising_speed_board_up;
    1354:	ea e4       	ldi	r30, 0x4A	; 74
    1356:	f2 e0       	ldi	r31, 0x02	; 2
    1358:	92 a1       	ldd	r25, Z+34	; 0x22
    135a:	83 a1       	ldd	r24, Z+35	; 0x23
    135c:	ef e7       	ldi	r30, 0x7F	; 127
    135e:	f2 e0       	ldi	r31, 0x02	; 2
    1360:	94 a3       	std	Z+36, r25	; 0x24
							SDO_TX_DATA_2 = non_volatile_data.torque_rising_speed_board_up >> 8;
    1362:	85 a3       	std	Z+37, r24	; 0x25
						break;
    1364:	0e c0       	rjmp	.+28     	; 0x1382 <CAN_task+0x300>
					
						case 0x03:
							SDO_TX_DATA_1 = non_volatile_data.torque_rising_speed_board_down;
    1366:	ea e4       	ldi	r30, 0x4A	; 74
    1368:	f2 e0       	ldi	r31, 0x02	; 2
    136a:	94 a1       	ldd	r25, Z+36	; 0x24
    136c:	85 a1       	ldd	r24, Z+37	; 0x25
    136e:	ef e7       	ldi	r30, 0x7F	; 127
    1370:	f2 e0       	ldi	r31, 0x02	; 2
    1372:	94 a3       	std	Z+36, r25	; 0x24
							SDO_TX_DATA_2 = non_volatile_data.torque_rising_speed_board_down >> 8;
    1374:	85 a3       	std	Z+37, r24	; 0x25
						break;
    1376:	05 c0       	rjmp	.+10     	; 0x1382 <CAN_task+0x300>
						
						default:
							SET_FLAG(can_state.flags, CAN_FLAG_COMMAND_FAILED);
    1378:	80 91 72 02 	lds	r24, 0x0272	; 0x800272 <can_state>
    137c:	80 61       	ori	r24, 0x10	; 16
    137e:	80 93 72 02 	sts	0x0272, r24	; 0x800272 <can_state>
					}
					
				default:
					SET_FLAG(can_state.flags, CAN_FLAG_COMMAND_FAILED);
    1382:	80 91 72 02 	lds	r24, 0x0272	; 0x800272 <can_state>
    1386:	80 61       	ori	r24, 0x10	; 16
    1388:	80 93 72 02 	sts	0x0272, r24	; 0x800272 <can_state>
			}
			//uzupe³nianie pozosta³ych pól pakietu
			if(!(HAS_FLAG(can_state.flags, CAN_FLAG_COMMAND_FAILED))){
    138c:	80 91 72 02 	lds	r24, 0x0272	; 0x800272 <can_state>
    1390:	84 fd       	sbrc	r24, 4
    1392:	23 c0       	rjmp	.+70     	; 0x13da <CAN_task+0x358>
				if(HAS_FLAG(can_state.flags, CAN_FLAG_DATA_LENGTH_16)){
    1394:	80 91 72 02 	lds	r24, 0x0272	; 0x800272 <can_state>
    1398:	85 ff       	sbrs	r24, 5
    139a:	0d c0       	rjmp	.+26     	; 0x13b6 <CAN_task+0x334>
					SDO_READ_POSITIVE_RESPONSE_16;
    139c:	ef e7       	ldi	r30, 0x7F	; 127
    139e:	f2 e0       	ldi	r31, 0x02	; 2
    13a0:	8b e4       	ldi	r24, 0x4B	; 75
    13a2:	80 a3       	std	Z+32, r24	; 0x20
    13a4:	81 a5       	ldd	r24, Z+41	; 0x29
    13a6:	81 a3       	std	Z+33, r24	; 0x21
    13a8:	82 a5       	ldd	r24, Z+42	; 0x2a
    13aa:	82 a3       	std	Z+34, r24	; 0x22
    13ac:	83 a5       	ldd	r24, Z+43	; 0x2b
    13ae:	83 a3       	std	Z+35, r24	; 0x23
    13b0:	16 a2       	std	Z+38, r1	; 0x26
    13b2:	17 a2       	std	Z+39, r1	; 0x27
    13b4:	9f c1       	rjmp	.+830    	; 0x16f4 <CAN_task+0x672>

				}
				else if(HAS_FLAG(can_state.flags, CAN_FLAG_DATA_LENGTH_8)){
    13b6:	80 91 72 02 	lds	r24, 0x0272	; 0x800272 <can_state>
    13ba:	84 ff       	sbrs	r24, 4
    13bc:	9b c1       	rjmp	.+822    	; 0x16f4 <CAN_task+0x672>
					SDO_READ_POSITIVE_RESPONSE_8;
    13be:	ef e7       	ldi	r30, 0x7F	; 127
    13c0:	f2 e0       	ldi	r31, 0x02	; 2
    13c2:	8f e4       	ldi	r24, 0x4F	; 79
    13c4:	80 a3       	std	Z+32, r24	; 0x20
    13c6:	81 a5       	ldd	r24, Z+41	; 0x29
    13c8:	81 a3       	std	Z+33, r24	; 0x21
    13ca:	82 a5       	ldd	r24, Z+42	; 0x2a
    13cc:	82 a3       	std	Z+34, r24	; 0x22
    13ce:	83 a5       	ldd	r24, Z+43	; 0x2b
    13d0:	83 a3       	std	Z+35, r24	; 0x23
    13d2:	15 a2       	std	Z+37, r1	; 0x25
    13d4:	16 a2       	std	Z+38, r1	; 0x26
    13d6:	17 a2       	std	Z+39, r1	; 0x27
    13d8:	8d c1       	rjmp	.+794    	; 0x16f4 <CAN_task+0x672>
				}
			}
			else{
				SDO_NEGATIVE_RESPONSE;
    13da:	ef e7       	ldi	r30, 0x7F	; 127
    13dc:	f2 e0       	ldi	r31, 0x02	; 2
    13de:	80 e8       	ldi	r24, 0x80	; 128
    13e0:	80 a3       	std	Z+32, r24	; 0x20
    13e2:	81 a5       	ldd	r24, Z+41	; 0x29
    13e4:	81 a3       	std	Z+33, r24	; 0x21
    13e6:	82 a5       	ldd	r24, Z+42	; 0x2a
    13e8:	82 a3       	std	Z+34, r24	; 0x22
    13ea:	83 a5       	ldd	r24, Z+43	; 0x2b
    13ec:	83 a3       	std	Z+35, r24	; 0x23
    13ee:	14 a2       	std	Z+36, r1	; 0x24
    13f0:	15 a2       	std	Z+37, r1	; 0x25
    13f2:	16 a2       	std	Z+38, r1	; 0x26
    13f4:	17 a2       	std	Z+39, r1	; 0x27
    13f6:	7e c1       	rjmp	.+764    	; 0x16f4 <CAN_task+0x672>
			}
		}
		/*--ZAPIS--*/
		else if(SDO_RX_COMMAND & SDO_WRITE_COMMAND){//gdy komenda zapisu
    13f8:	80 91 a7 02 	lds	r24, 0x02A7	; 0x8002a7 <MOb_data+0x28>
    13fc:	83 72       	andi	r24, 0x23	; 35
    13fe:	09 f4       	brne	.+2      	; 0x1402 <CAN_task+0x380>
    1400:	6b c1       	rjmp	.+726    	; 0x16d8 <CAN_task+0x656>
			switch (SDO_RX_INDEX){
    1402:	af e7       	ldi	r26, 0x7F	; 127
    1404:	b2 e0       	ldi	r27, 0x02	; 2
    1406:	99 96       	adiw	r26, 0x29	; 41
    1408:	ec 91       	ld	r30, X
    140a:	99 97       	sbiw	r26, 0x29	; 41
    140c:	9a 96       	adiw	r26, 0x2a	; 42
    140e:	8c 91       	ld	r24, X
    1410:	f0 e0       	ldi	r31, 0x00	; 0
    1412:	f8 2b       	or	r31, r24
    1414:	e1 50       	subi	r30, 0x01	; 1
    1416:	f0 42       	sbci	r31, 0x20	; 32
    1418:	e7 30       	cpi	r30, 0x07	; 7
    141a:	f1 05       	cpc	r31, r1
    141c:	08 f0       	brcs	.+2      	; 0x1420 <CAN_task+0x39e>
    141e:	33 c1       	rjmp	.+614    	; 0x1686 <CAN_task+0x604>
    1420:	ea 5b       	subi	r30, 0xBA	; 186
    1422:	ff 4f       	sbci	r31, 0xFF	; 255
    1424:	0c 94 80 0e 	jmp	0x1d00	; 0x1d00 <__tablejump2__>
				
				case 0x2001:
					switch(SDO_RX_SUBINDEX){
    1428:	80 91 aa 02 	lds	r24, 0x02AA	; 0x8002aa <MOb_data+0x2b>
    142c:	88 23       	and	r24, r24
    142e:	19 f0       	breq	.+6      	; 0x1436 <CAN_task+0x3b4>
    1430:	81 30       	cpi	r24, 0x01	; 1
    1432:	61 f0       	breq	.+24     	; 0x144c <CAN_task+0x3ca>
    1434:	16 c0       	rjmp	.+44     	; 0x1462 <CAN_task+0x3e0>
						case 0x00:
							non_volatile_data.adc_board_position_max = SDO_RX_DATA_1 | (SDO_RX_DATA_2 << 8);
    1436:	ef e7       	ldi	r30, 0x7F	; 127
    1438:	f2 e0       	ldi	r31, 0x02	; 2
    143a:	84 a5       	ldd	r24, Z+44	; 0x2c
    143c:	25 a5       	ldd	r18, Z+45	; 0x2d
    143e:	90 e0       	ldi	r25, 0x00	; 0
    1440:	92 2b       	or	r25, r18
    1442:	90 93 4f 02 	sts	0x024F, r25	; 0x80024f <non_volatile_data+0x5>
    1446:	80 93 4e 02 	sts	0x024E, r24	; 0x80024e <non_volatile_data+0x4>
						break;
    144a:	22 c1       	rjmp	.+580    	; 0x1690 <CAN_task+0x60e>
						
						case 0x01:
							non_volatile_data.adc_board_position_min = SDO_RX_DATA_1 | (SDO_RX_DATA_2 << 8);
    144c:	ef e7       	ldi	r30, 0x7F	; 127
    144e:	f2 e0       	ldi	r31, 0x02	; 2
    1450:	84 a5       	ldd	r24, Z+44	; 0x2c
    1452:	25 a5       	ldd	r18, Z+45	; 0x2d
    1454:	90 e0       	ldi	r25, 0x00	; 0
    1456:	92 2b       	or	r25, r18
    1458:	90 93 51 02 	sts	0x0251, r25	; 0x800251 <non_volatile_data+0x7>
    145c:	80 93 50 02 	sts	0x0250, r24	; 0x800250 <non_volatile_data+0x6>
						break;
    1460:	17 c1       	rjmp	.+558    	; 0x1690 <CAN_task+0x60e>
						
						default:
							SET_FLAG(can_state.flags, CAN_FLAG_COMMAND_FAILED);
    1462:	80 91 72 02 	lds	r24, 0x0272	; 0x800272 <can_state>
    1466:	80 61       	ori	r24, 0x10	; 16
    1468:	80 93 72 02 	sts	0x0272, r24	; 0x800272 <can_state>
    146c:	11 c1       	rjmp	.+546    	; 0x1690 <CAN_task+0x60e>
					}
				break;
				
				case 0x2002:
					switch(SDO_RX_SUBINDEX){
    146e:	80 91 aa 02 	lds	r24, 0x02AA	; 0x8002aa <MOb_data+0x2b>
    1472:	88 23       	and	r24, r24
    1474:	19 f0       	breq	.+6      	; 0x147c <CAN_task+0x3fa>
    1476:	81 30       	cpi	r24, 0x01	; 1
    1478:	61 f0       	breq	.+24     	; 0x1492 <CAN_task+0x410>
    147a:	16 c0       	rjmp	.+44     	; 0x14a8 <CAN_task+0x426>
						case 0x00:
							non_volatile_data.adc_current_offset = SDO_RX_DATA_1 | (SDO_RX_DATA_2 << 8);
    147c:	ef e7       	ldi	r30, 0x7F	; 127
    147e:	f2 e0       	ldi	r31, 0x02	; 2
    1480:	84 a5       	ldd	r24, Z+44	; 0x2c
    1482:	25 a5       	ldd	r18, Z+45	; 0x2d
    1484:	90 e0       	ldi	r25, 0x00	; 0
    1486:	92 2b       	or	r25, r18
    1488:	90 93 53 02 	sts	0x0253, r25	; 0x800253 <non_volatile_data+0x9>
    148c:	80 93 52 02 	sts	0x0252, r24	; 0x800252 <non_volatile_data+0x8>
						break;
    1490:	ff c0       	rjmp	.+510    	; 0x1690 <CAN_task+0x60e>
					
						case 0x01:
							non_volatile_data.adc_current_scale = SDO_RX_DATA_1 | (SDO_RX_DATA_2 << 8);
    1492:	ef e7       	ldi	r30, 0x7F	; 127
    1494:	f2 e0       	ldi	r31, 0x02	; 2
    1496:	84 a5       	ldd	r24, Z+44	; 0x2c
    1498:	25 a5       	ldd	r18, Z+45	; 0x2d
    149a:	90 e0       	ldi	r25, 0x00	; 0
    149c:	92 2b       	or	r25, r18
    149e:	90 93 55 02 	sts	0x0255, r25	; 0x800255 <non_volatile_data+0xb>
    14a2:	80 93 54 02 	sts	0x0254, r24	; 0x800254 <non_volatile_data+0xa>
						break;
    14a6:	f4 c0       	rjmp	.+488    	; 0x1690 <CAN_task+0x60e>
					
						default:
							SET_FLAG(can_state.flags, CAN_FLAG_COMMAND_FAILED);
    14a8:	80 91 72 02 	lds	r24, 0x0272	; 0x800272 <can_state>
    14ac:	80 61       	ori	r24, 0x10	; 16
    14ae:	80 93 72 02 	sts	0x0272, r24	; 0x800272 <can_state>
    14b2:	ee c0       	rjmp	.+476    	; 0x1690 <CAN_task+0x60e>
					}
				break;
				
				case 0x2003:
					switch(SDO_RX_SUBINDEX){
    14b4:	80 91 aa 02 	lds	r24, 0x02AA	; 0x8002aa <MOb_data+0x2b>
    14b8:	88 23       	and	r24, r24
    14ba:	19 f0       	breq	.+6      	; 0x14c2 <CAN_task+0x440>
    14bc:	81 30       	cpi	r24, 0x01	; 1
    14be:	61 f0       	breq	.+24     	; 0x14d8 <CAN_task+0x456>
    14c0:	16 c0       	rjmp	.+44     	; 0x14ee <CAN_task+0x46c>
						case 0x00:
							non_volatile_data.adc_voltage_offset = SDO_RX_DATA_1 | (SDO_RX_DATA_2 << 8);
    14c2:	ef e7       	ldi	r30, 0x7F	; 127
    14c4:	f2 e0       	ldi	r31, 0x02	; 2
    14c6:	84 a5       	ldd	r24, Z+44	; 0x2c
    14c8:	25 a5       	ldd	r18, Z+45	; 0x2d
    14ca:	90 e0       	ldi	r25, 0x00	; 0
    14cc:	92 2b       	or	r25, r18
    14ce:	90 93 57 02 	sts	0x0257, r25	; 0x800257 <non_volatile_data+0xd>
    14d2:	80 93 56 02 	sts	0x0256, r24	; 0x800256 <non_volatile_data+0xc>
						break;
    14d6:	dc c0       	rjmp	.+440    	; 0x1690 <CAN_task+0x60e>
					
						case 0x01:
							non_volatile_data.adc_voltage_scale = SDO_RX_DATA_1 | (SDO_RX_DATA_2 << 8);
    14d8:	ef e7       	ldi	r30, 0x7F	; 127
    14da:	f2 e0       	ldi	r31, 0x02	; 2
    14dc:	84 a5       	ldd	r24, Z+44	; 0x2c
    14de:	25 a5       	ldd	r18, Z+45	; 0x2d
    14e0:	90 e0       	ldi	r25, 0x00	; 0
    14e2:	92 2b       	or	r25, r18
    14e4:	90 93 59 02 	sts	0x0259, r25	; 0x800259 <non_volatile_data+0xf>
    14e8:	80 93 58 02 	sts	0x0258, r24	; 0x800258 <non_volatile_data+0xe>
						break;
    14ec:	d1 c0       	rjmp	.+418    	; 0x1690 <CAN_task+0x60e>
					
						default:
							SET_FLAG(can_state.flags, CAN_FLAG_COMMAND_FAILED);
    14ee:	80 91 72 02 	lds	r24, 0x0272	; 0x800272 <can_state>
    14f2:	80 61       	ori	r24, 0x10	; 16
    14f4:	80 93 72 02 	sts	0x0272, r24	; 0x800272 <can_state>
    14f8:	cb c0       	rjmp	.+406    	; 0x1690 <CAN_task+0x60e>
					}
				break;
				
				case 0x2004:
					SET_FLAG(can_state.flags, CAN_FLAG_DATA_LENGTH_8);
    14fa:	80 91 72 02 	lds	r24, 0x0272	; 0x800272 <can_state>
    14fe:	80 61       	ori	r24, 0x10	; 16
    1500:	80 93 72 02 	sts	0x0272, r24	; 0x800272 <can_state>
					switch(SDO_RX_SUBINDEX){
    1504:	80 91 aa 02 	lds	r24, 0x02AA	; 0x8002aa <MOb_data+0x2b>
    1508:	88 23       	and	r24, r24
    150a:	19 f0       	breq	.+6      	; 0x1512 <CAN_task+0x490>
    150c:	81 30       	cpi	r24, 0x01	; 1
    150e:	31 f0       	breq	.+12     	; 0x151c <CAN_task+0x49a>
    1510:	0a c0       	rjmp	.+20     	; 0x1526 <CAN_task+0x4a4>
						case 0x00:
							non_volatile_data.winch_overcurrent_value = SDO_RX_DATA_1;
    1512:	80 91 ab 02 	lds	r24, 0x02AB	; 0x8002ab <MOb_data+0x2c>
    1516:	80 93 5a 02 	sts	0x025A, r24	; 0x80025a <non_volatile_data+0x10>
						break;
    151a:	ba c0       	rjmp	.+372    	; 0x1690 <CAN_task+0x60e>
					
						case 0x01:
							non_volatile_data.board_overcurrent_value = SDO_RX_DATA_1;
    151c:	80 91 ab 02 	lds	r24, 0x02AB	; 0x8002ab <MOb_data+0x2c>
    1520:	80 93 5b 02 	sts	0x025B, r24	; 0x80025b <non_volatile_data+0x11>
						break;
    1524:	b5 c0       	rjmp	.+362    	; 0x1690 <CAN_task+0x60e>
					
						default:
							SET_FLAG(can_state.flags, CAN_FLAG_COMMAND_FAILED);
    1526:	80 91 72 02 	lds	r24, 0x0272	; 0x800272 <can_state>
    152a:	80 61       	ori	r24, 0x10	; 16
    152c:	80 93 72 02 	sts	0x0272, r24	; 0x800272 <can_state>
    1530:	af c0       	rjmp	.+350    	; 0x1690 <CAN_task+0x60e>
					}
				break;
				
				case 0x2005:
					SET_FLAG(can_state.flags, CAN_FLAG_DATA_LENGTH_16);
    1532:	80 91 72 02 	lds	r24, 0x0272	; 0x800272 <can_state>
    1536:	80 62       	ori	r24, 0x20	; 32
    1538:	80 93 72 02 	sts	0x0272, r24	; 0x800272 <can_state>
					switch(SDO_RX_SUBINDEX){
    153c:	80 91 aa 02 	lds	r24, 0x02AA	; 0x8002aa <MOb_data+0x2b>
    1540:	81 30       	cpi	r24, 0x01	; 1
    1542:	89 f0       	breq	.+34     	; 0x1566 <CAN_task+0x4e4>
    1544:	28 f0       	brcs	.+10     	; 0x1550 <CAN_task+0x4ce>
    1546:	82 30       	cpi	r24, 0x02	; 2
    1548:	c9 f0       	breq	.+50     	; 0x157c <CAN_task+0x4fa>
    154a:	83 30       	cpi	r24, 0x03	; 3
    154c:	11 f1       	breq	.+68     	; 0x1592 <CAN_task+0x510>
    154e:	2c c0       	rjmp	.+88     	; 0x15a8 <CAN_task+0x526>
						case 0x00:
							non_volatile_data.torque_init_val_winch_up = SDO_RX_DATA_1 | (SDO_RX_DATA_2 << 8);
    1550:	ef e7       	ldi	r30, 0x7F	; 127
    1552:	f2 e0       	ldi	r31, 0x02	; 2
    1554:	84 a5       	ldd	r24, Z+44	; 0x2c
    1556:	25 a5       	ldd	r18, Z+45	; 0x2d
    1558:	90 e0       	ldi	r25, 0x00	; 0
    155a:	92 2b       	or	r25, r18
    155c:	90 93 5d 02 	sts	0x025D, r25	; 0x80025d <non_volatile_data+0x13>
    1560:	80 93 5c 02 	sts	0x025C, r24	; 0x80025c <non_volatile_data+0x12>
						break;
    1564:	95 c0       	rjmp	.+298    	; 0x1690 <CAN_task+0x60e>
					
						case 0x01:
							non_volatile_data.torque_init_val_winch_down = SDO_RX_DATA_1 | (SDO_RX_DATA_2 << 8);
    1566:	ef e7       	ldi	r30, 0x7F	; 127
    1568:	f2 e0       	ldi	r31, 0x02	; 2
    156a:	84 a5       	ldd	r24, Z+44	; 0x2c
    156c:	25 a5       	ldd	r18, Z+45	; 0x2d
    156e:	90 e0       	ldi	r25, 0x00	; 0
    1570:	92 2b       	or	r25, r18
    1572:	90 93 5f 02 	sts	0x025F, r25	; 0x80025f <non_volatile_data+0x15>
    1576:	80 93 5e 02 	sts	0x025E, r24	; 0x80025e <non_volatile_data+0x14>
						break;
    157a:	8a c0       	rjmp	.+276    	; 0x1690 <CAN_task+0x60e>
						
						case 0x02:
							non_volatile_data.torque_init_val_board_up = SDO_RX_DATA_1 | (SDO_RX_DATA_2 << 8);
    157c:	ef e7       	ldi	r30, 0x7F	; 127
    157e:	f2 e0       	ldi	r31, 0x02	; 2
    1580:	84 a5       	ldd	r24, Z+44	; 0x2c
    1582:	25 a5       	ldd	r18, Z+45	; 0x2d
    1584:	90 e0       	ldi	r25, 0x00	; 0
    1586:	92 2b       	or	r25, r18
    1588:	90 93 61 02 	sts	0x0261, r25	; 0x800261 <non_volatile_data+0x17>
    158c:	80 93 60 02 	sts	0x0260, r24	; 0x800260 <non_volatile_data+0x16>
						break;
    1590:	7f c0       	rjmp	.+254    	; 0x1690 <CAN_task+0x60e>
					
						case 0x03:
							non_volatile_data.torque_init_val_board_down = SDO_RX_DATA_1 | (SDO_RX_DATA_2 << 8);
    1592:	ef e7       	ldi	r30, 0x7F	; 127
    1594:	f2 e0       	ldi	r31, 0x02	; 2
    1596:	84 a5       	ldd	r24, Z+44	; 0x2c
    1598:	25 a5       	ldd	r18, Z+45	; 0x2d
    159a:	90 e0       	ldi	r25, 0x00	; 0
    159c:	92 2b       	or	r25, r18
    159e:	90 93 63 02 	sts	0x0263, r25	; 0x800263 <non_volatile_data+0x19>
    15a2:	80 93 62 02 	sts	0x0262, r24	; 0x800262 <non_volatile_data+0x18>
						break;
    15a6:	74 c0       	rjmp	.+232    	; 0x1690 <CAN_task+0x60e>
						
						default:
							SET_FLAG(can_state.flags, CAN_FLAG_COMMAND_FAILED);
    15a8:	80 91 72 02 	lds	r24, 0x0272	; 0x800272 <can_state>
    15ac:	80 61       	ori	r24, 0x10	; 16
    15ae:	80 93 72 02 	sts	0x0272, r24	; 0x800272 <can_state>
    15b2:	6e c0       	rjmp	.+220    	; 0x1690 <CAN_task+0x60e>
					}
				break;
				
				case 0x2006:
					SET_FLAG(can_state.flags, CAN_FLAG_DATA_LENGTH_8);
    15b4:	80 91 72 02 	lds	r24, 0x0272	; 0x800272 <can_state>
    15b8:	80 61       	ori	r24, 0x10	; 16
    15ba:	80 93 72 02 	sts	0x0272, r24	; 0x800272 <can_state>
					switch(SDO_RX_SUBINDEX){
    15be:	80 91 aa 02 	lds	r24, 0x02AA	; 0x8002aa <MOb_data+0x2b>
    15c2:	81 30       	cpi	r24, 0x01	; 1
    15c4:	59 f0       	breq	.+22     	; 0x15dc <CAN_task+0x55a>
    15c6:	28 f0       	brcs	.+10     	; 0x15d2 <CAN_task+0x550>
    15c8:	82 30       	cpi	r24, 0x02	; 2
    15ca:	69 f0       	breq	.+26     	; 0x15e6 <CAN_task+0x564>
    15cc:	83 30       	cpi	r24, 0x03	; 3
    15ce:	81 f0       	breq	.+32     	; 0x15f0 <CAN_task+0x56e>
    15d0:	14 c0       	rjmp	.+40     	; 0x15fa <CAN_task+0x578>
						case 0x00:
							non_volatile_data.torque_rising_speed_period_winch_up = SDO_RX_DATA_1;
    15d2:	80 91 ab 02 	lds	r24, 0x02AB	; 0x8002ab <MOb_data+0x2c>
    15d6:	80 93 64 02 	sts	0x0264, r24	; 0x800264 <non_volatile_data+0x1a>
						break;
    15da:	5a c0       	rjmp	.+180    	; 0x1690 <CAN_task+0x60e>
					
						case 0x01:
							non_volatile_data.torque_rising_speed_period_winch_down = SDO_RX_DATA_1;
    15dc:	80 91 ab 02 	lds	r24, 0x02AB	; 0x8002ab <MOb_data+0x2c>
    15e0:	80 93 65 02 	sts	0x0265, r24	; 0x800265 <non_volatile_data+0x1b>
						break;
    15e4:	55 c0       	rjmp	.+170    	; 0x1690 <CAN_task+0x60e>
					
						case 0x02:
							non_volatile_data.torque_rising_speed_period_board_up = SDO_RX_DATA_1;
    15e6:	80 91 ab 02 	lds	r24, 0x02AB	; 0x8002ab <MOb_data+0x2c>
    15ea:	80 93 66 02 	sts	0x0266, r24	; 0x800266 <non_volatile_data+0x1c>
						break;
    15ee:	50 c0       	rjmp	.+160    	; 0x1690 <CAN_task+0x60e>
					
						case 0x03:
							non_volatile_data.torque_rising_speed_period_board_down = SDO_RX_DATA_1;
    15f0:	80 91 ab 02 	lds	r24, 0x02AB	; 0x8002ab <MOb_data+0x2c>
    15f4:	80 93 67 02 	sts	0x0267, r24	; 0x800267 <non_volatile_data+0x1d>
						break;
    15f8:	4b c0       	rjmp	.+150    	; 0x1690 <CAN_task+0x60e>
					
						default:
							SET_FLAG(can_state.flags, CAN_FLAG_COMMAND_FAILED);
    15fa:	80 91 72 02 	lds	r24, 0x0272	; 0x800272 <can_state>
    15fe:	80 61       	ori	r24, 0x10	; 16
    1600:	80 93 72 02 	sts	0x0272, r24	; 0x800272 <can_state>
    1604:	45 c0       	rjmp	.+138    	; 0x1690 <CAN_task+0x60e>
					}
				break;
				
				case 0x2007:
					SET_FLAG(can_state.flags, CAN_FLAG_DATA_LENGTH_16);
    1606:	80 91 72 02 	lds	r24, 0x0272	; 0x800272 <can_state>
    160a:	80 62       	ori	r24, 0x20	; 32
    160c:	80 93 72 02 	sts	0x0272, r24	; 0x800272 <can_state>
					switch(SDO_RX_SUBINDEX){
    1610:	80 91 aa 02 	lds	r24, 0x02AA	; 0x8002aa <MOb_data+0x2b>
    1614:	81 30       	cpi	r24, 0x01	; 1
    1616:	89 f0       	breq	.+34     	; 0x163a <CAN_task+0x5b8>
    1618:	28 f0       	brcs	.+10     	; 0x1624 <CAN_task+0x5a2>
    161a:	82 30       	cpi	r24, 0x02	; 2
    161c:	c9 f0       	breq	.+50     	; 0x1650 <CAN_task+0x5ce>
    161e:	83 30       	cpi	r24, 0x03	; 3
    1620:	11 f1       	breq	.+68     	; 0x1666 <CAN_task+0x5e4>
    1622:	2c c0       	rjmp	.+88     	; 0x167c <CAN_task+0x5fa>
						case 0x00:
							non_volatile_data.torque_rising_speed_winch_up = SDO_RX_DATA_1 | (SDO_RX_DATA_2 << 8);
    1624:	ef e7       	ldi	r30, 0x7F	; 127
    1626:	f2 e0       	ldi	r31, 0x02	; 2
    1628:	84 a5       	ldd	r24, Z+44	; 0x2c
    162a:	25 a5       	ldd	r18, Z+45	; 0x2d
    162c:	90 e0       	ldi	r25, 0x00	; 0
    162e:	92 2b       	or	r25, r18
    1630:	90 93 69 02 	sts	0x0269, r25	; 0x800269 <non_volatile_data+0x1f>
    1634:	80 93 68 02 	sts	0x0268, r24	; 0x800268 <non_volatile_data+0x1e>
						break;
    1638:	26 c0       	rjmp	.+76     	; 0x1686 <CAN_task+0x604>
					
						case 0x01:
							non_volatile_data.torque_rising_speed_winch_down = SDO_RX_DATA_1 | (SDO_RX_DATA_2 << 8);
    163a:	ef e7       	ldi	r30, 0x7F	; 127
    163c:	f2 e0       	ldi	r31, 0x02	; 2
    163e:	84 a5       	ldd	r24, Z+44	; 0x2c
    1640:	25 a5       	ldd	r18, Z+45	; 0x2d
    1642:	90 e0       	ldi	r25, 0x00	; 0
    1644:	92 2b       	or	r25, r18
    1646:	90 93 6b 02 	sts	0x026B, r25	; 0x80026b <non_volatile_data+0x21>
    164a:	80 93 6a 02 	sts	0x026A, r24	; 0x80026a <non_volatile_data+0x20>
						break;
    164e:	1b c0       	rjmp	.+54     	; 0x1686 <CAN_task+0x604>
						
						case 0x02:
							non_volatile_data.torque_rising_speed_board_up = SDO_RX_DATA_1 | (SDO_RX_DATA_2 << 8);
    1650:	ef e7       	ldi	r30, 0x7F	; 127
    1652:	f2 e0       	ldi	r31, 0x02	; 2
    1654:	84 a5       	ldd	r24, Z+44	; 0x2c
    1656:	25 a5       	ldd	r18, Z+45	; 0x2d
    1658:	90 e0       	ldi	r25, 0x00	; 0
    165a:	92 2b       	or	r25, r18
    165c:	90 93 6d 02 	sts	0x026D, r25	; 0x80026d <non_volatile_data+0x23>
    1660:	80 93 6c 02 	sts	0x026C, r24	; 0x80026c <non_volatile_data+0x22>
						break;
    1664:	10 c0       	rjmp	.+32     	; 0x1686 <CAN_task+0x604>
					
						case 0x03:
							non_volatile_data.torque_rising_speed_board_down = SDO_RX_DATA_1 | (SDO_RX_DATA_2 << 8);
    1666:	ef e7       	ldi	r30, 0x7F	; 127
    1668:	f2 e0       	ldi	r31, 0x02	; 2
    166a:	84 a5       	ldd	r24, Z+44	; 0x2c
    166c:	25 a5       	ldd	r18, Z+45	; 0x2d
    166e:	90 e0       	ldi	r25, 0x00	; 0
    1670:	92 2b       	or	r25, r18
    1672:	90 93 6f 02 	sts	0x026F, r25	; 0x80026f <non_volatile_data+0x25>
    1676:	80 93 6e 02 	sts	0x026E, r24	; 0x80026e <non_volatile_data+0x24>
						break;
    167a:	05 c0       	rjmp	.+10     	; 0x1686 <CAN_task+0x604>
						
						default:
							SET_FLAG(can_state.flags, CAN_FLAG_COMMAND_FAILED);
    167c:	80 91 72 02 	lds	r24, 0x0272	; 0x800272 <can_state>
    1680:	80 61       	ori	r24, 0x10	; 16
    1682:	80 93 72 02 	sts	0x0272, r24	; 0x800272 <can_state>
					}
				
				default:
					SET_FLAG(can_state.flags, CAN_FLAG_COMMAND_FAILED);
    1686:	80 91 72 02 	lds	r24, 0x0272	; 0x800272 <can_state>
    168a:	80 61       	ori	r24, 0x10	; 16
    168c:	80 93 72 02 	sts	0x0272, r24	; 0x800272 <can_state>
			}
			
			if(!(HAS_FLAG(can_state.flags, CAN_FLAG_COMMAND_FAILED))){
    1690:	80 91 72 02 	lds	r24, 0x0272	; 0x800272 <can_state>
    1694:	84 fd       	sbrc	r24, 4
    1696:	11 c0       	rjmp	.+34     	; 0x16ba <CAN_task+0x638>
				SDO_WRITE_POSITIVE_RESPONSE;
    1698:	ef e7       	ldi	r30, 0x7F	; 127
    169a:	f2 e0       	ldi	r31, 0x02	; 2
    169c:	80 e6       	ldi	r24, 0x60	; 96
    169e:	80 a3       	std	Z+32, r24	; 0x20
    16a0:	81 a5       	ldd	r24, Z+41	; 0x29
    16a2:	81 a3       	std	Z+33, r24	; 0x21
    16a4:	82 a5       	ldd	r24, Z+42	; 0x2a
    16a6:	82 a3       	std	Z+34, r24	; 0x22
    16a8:	83 a5       	ldd	r24, Z+43	; 0x2b
    16aa:	83 a3       	std	Z+35, r24	; 0x23
    16ac:	14 a2       	std	Z+36, r1	; 0x24
    16ae:	15 a2       	std	Z+37, r1	; 0x25
    16b0:	16 a2       	std	Z+38, r1	; 0x26
    16b2:	17 a2       	std	Z+39, r1	; 0x27
				eeprom_write();
    16b4:	0e 94 bc 02 	call	0x578	; 0x578 <eeprom_write>
    16b8:	1d c0       	rjmp	.+58     	; 0x16f4 <CAN_task+0x672>
			}
			else{
				SDO_NEGATIVE_RESPONSE;
    16ba:	ef e7       	ldi	r30, 0x7F	; 127
    16bc:	f2 e0       	ldi	r31, 0x02	; 2
    16be:	80 e8       	ldi	r24, 0x80	; 128
    16c0:	80 a3       	std	Z+32, r24	; 0x20
    16c2:	81 a5       	ldd	r24, Z+41	; 0x29
    16c4:	81 a3       	std	Z+33, r24	; 0x21
    16c6:	82 a5       	ldd	r24, Z+42	; 0x2a
    16c8:	82 a3       	std	Z+34, r24	; 0x22
    16ca:	83 a5       	ldd	r24, Z+43	; 0x2b
    16cc:	83 a3       	std	Z+35, r24	; 0x23
    16ce:	14 a2       	std	Z+36, r1	; 0x24
    16d0:	15 a2       	std	Z+37, r1	; 0x25
    16d2:	16 a2       	std	Z+38, r1	; 0x26
    16d4:	17 a2       	std	Z+39, r1	; 0x27
    16d6:	0e c0       	rjmp	.+28     	; 0x16f4 <CAN_task+0x672>
			}
			
		}
		//gdy nieprawid³owa komenda
		else{
			SDO_NEGATIVE_RESPONSE;
    16d8:	ef e7       	ldi	r30, 0x7F	; 127
    16da:	f2 e0       	ldi	r31, 0x02	; 2
    16dc:	80 e8       	ldi	r24, 0x80	; 128
    16de:	80 a3       	std	Z+32, r24	; 0x20
    16e0:	81 a5       	ldd	r24, Z+41	; 0x29
    16e2:	81 a3       	std	Z+33, r24	; 0x21
    16e4:	82 a5       	ldd	r24, Z+42	; 0x2a
    16e6:	82 a3       	std	Z+34, r24	; 0x22
    16e8:	83 a5       	ldd	r24, Z+43	; 0x2b
    16ea:	83 a3       	std	Z+35, r24	; 0x23
    16ec:	14 a2       	std	Z+36, r1	; 0x24
    16ee:	15 a2       	std	Z+37, r1	; 0x25
    16f0:	16 a2       	std	Z+38, r1	; 0x26
    16f2:	17 a2       	std	Z+39, r1	; 0x27
		}
		
		//procedura wysy³ania odpowiedzi
		CAN_send_SDO();
    16f4:	0e 94 27 08 	call	0x104e	; 0x104e <CAN_send_SDO>
		
		CLEAR_FLAG(can_state.flags, CAN_FLAG_SDO_RECEIVED);
    16f8:	80 91 72 02 	lds	r24, 0x0272	; 0x800272 <can_state>
    16fc:	87 7f       	andi	r24, 0xF7	; 247
    16fe:	80 93 72 02 	sts	0x0272, r24	; 0x800272 <can_state>
    1702:	08 95       	ret
		 
	}
	//aktualizacja danych
	else if(HAS_FLAG(can_state.flags, CAN_FLAG_UPDATE_DATA)){//mechanizm przepisywania danych PDO - po ka¿dym sync przepisywane s¹ œwie¿e dane
    1704:	80 91 72 02 	lds	r24, 0x0272	; 0x800272 <can_state>
    1708:	82 ff       	sbrs	r24, 2
    170a:	52 c0       	rjmp	.+164    	; 0x17b0 <CAN_task+0x72e>
		static uint8_t frame=MOb_1;
		if(frame == MOb_1 ){ //RPDO 1
    170c:	80 91 1e 01 	lds	r24, 0x011E	; 0x80011e <frame.2078>
    1710:	81 30       	cpi	r24, 0x01	; 1
    1712:	21 f4       	brne	.+8      	; 0x171c <CAN_task+0x69a>
			//CAN.status_word = MOb_data[frame][1]<<8 | MOb_data[frame][0];
			frame++;
    1714:	82 e0       	ldi	r24, 0x02	; 2
    1716:	80 93 1e 01 	sts	0x011E, r24	; 0x80011e <frame.2078>
    171a:	08 95       	ret
		}
		else if(frame == MOb_2 ){ //TPDO 1 - nadaje
    171c:	82 30       	cpi	r24, 0x02	; 2
    171e:	e1 f4       	brne	.+56     	; 0x1758 <CAN_task+0x6d6>
			MOb_data[frame][0] = CAN.state;
    1720:	a4 e7       	ldi	r26, 0x74	; 116
    1722:	b2 e0       	ldi	r27, 0x02	; 2
    1724:	13 96       	adiw	r26, 0x03	; 3
    1726:	8c 91       	ld	r24, X
    1728:	13 97       	sbiw	r26, 0x03	; 3
    172a:	ef e7       	ldi	r30, 0x7F	; 127
    172c:	f2 e0       	ldi	r31, 0x02	; 2
    172e:	80 8b       	std	Z+16, r24	; 0x10
			MOb_data[frame][1] = CAN.board_position;
    1730:	11 96       	adiw	r26, 0x01	; 1
    1732:	8c 91       	ld	r24, X
    1734:	11 97       	sbiw	r26, 0x01	; 1
    1736:	81 8b       	std	Z+17, r24	; 0x11
			MOb_data[frame][2] = CAN.supply_voltage;
    1738:	12 96       	adiw	r26, 0x02	; 2
    173a:	8c 91       	ld	r24, X
    173c:	12 97       	sbiw	r26, 0x02	; 2
    173e:	82 8b       	std	Z+18, r24	; 0x12
			MOb_data[frame][3] = CAN.current;
    1740:	8c 91       	ld	r24, X
    1742:	83 8b       	std	Z+19, r24	; 0x13
			MOb_data[frame][4] = CAN.function;
    1744:	14 96       	adiw	r26, 0x04	; 4
    1746:	8c 91       	ld	r24, X
    1748:	84 8b       	std	Z+20, r24	; 0x14
			MOb_data[frame][5] = 0x00;
    174a:	15 8a       	std	Z+21, r1	; 0x15
			MOb_data[frame][6] = 0x00;
    174c:	16 8a       	std	Z+22, r1	; 0x16
			MOb_data[frame][7] = 0x00;
    174e:	17 8a       	std	Z+23, r1	; 0x17
			frame++;
    1750:	83 e0       	ldi	r24, 0x03	; 3
    1752:	80 93 1e 01 	sts	0x011E, r24	; 0x80011e <frame.2078>
    1756:	08 95       	ret
		}
		else if(frame == MOb_3 ){ //TPDO 2 nadaje
    1758:	83 30       	cpi	r24, 0x03	; 3
    175a:	09 f0       	breq	.+2      	; 0x175e <CAN_task+0x6dc>
    175c:	6d c0       	rjmp	.+218    	; 0x1838 <CAN_task+0x7b6>
			MOb_data[frame][0] = CAN.state;
    175e:	a4 e7       	ldi	r26, 0x74	; 116
    1760:	b2 e0       	ldi	r27, 0x02	; 2
    1762:	13 96       	adiw	r26, 0x03	; 3
    1764:	8c 91       	ld	r24, X
    1766:	13 97       	sbiw	r26, 0x03	; 3
    1768:	ef e7       	ldi	r30, 0x7F	; 127
    176a:	f2 e0       	ldi	r31, 0x02	; 2
    176c:	80 8f       	std	Z+24, r24	; 0x18
			MOb_data[frame][1] = CAN.board_position_raw;
    176e:	17 96       	adiw	r26, 0x07	; 7
    1770:	9c 91       	ld	r25, X
    1772:	17 97       	sbiw	r26, 0x07	; 7
    1774:	18 96       	adiw	r26, 0x08	; 8
    1776:	8c 91       	ld	r24, X
    1778:	18 97       	sbiw	r26, 0x08	; 8
    177a:	91 8f       	std	Z+25, r25	; 0x19
			MOb_data[frame][2] = CAN.board_position_raw >>8;
    177c:	82 8f       	std	Z+26, r24	; 0x1a
			MOb_data[frame][3] = CAN.current_raw ;
    177e:	19 96       	adiw	r26, 0x09	; 9
    1780:	9c 91       	ld	r25, X
    1782:	19 97       	sbiw	r26, 0x09	; 9
    1784:	1a 96       	adiw	r26, 0x0a	; 10
    1786:	8c 91       	ld	r24, X
    1788:	1a 97       	sbiw	r26, 0x0a	; 10
    178a:	93 8f       	std	Z+27, r25	; 0x1b
			MOb_data[frame][4] = CAN.current_raw >> 8;
    178c:	84 8f       	std	Z+28, r24	; 0x1c
			MOb_data[frame][5] = CAN.diag_1;
    178e:	15 96       	adiw	r26, 0x05	; 5
    1790:	8c 91       	ld	r24, X
    1792:	15 97       	sbiw	r26, 0x05	; 5
    1794:	85 8f       	std	Z+29, r24	; 0x1d
			MOb_data[frame][6] = CAN.diag_2;
    1796:	16 96       	adiw	r26, 0x06	; 6
    1798:	8c 91       	ld	r24, X
    179a:	86 8f       	std	Z+30, r24	; 0x1e
			MOb_data[frame][7] = 0x00;
    179c:	17 8e       	std	Z+31, r1	; 0x1f
			CLEAR_FLAG(can_state.flags, CAN_FLAG_UPDATE_DATA);
    179e:	80 91 72 02 	lds	r24, 0x0272	; 0x800272 <can_state>
    17a2:	8b 7f       	andi	r24, 0xFB	; 251
    17a4:	80 93 72 02 	sts	0x0272, r24	; 0x800272 <can_state>
			frame = MOb_1;
    17a8:	81 e0       	ldi	r24, 0x01	; 1
    17aa:	80 93 1e 01 	sts	0x011E, r24	; 0x80011e <frame.2078>
    17ae:	08 95       	ret
		}						
	}
	//wysy³anie danych po syncu
	else if( HAS_FLAG(can_state.flags, CAN_FLAG_SYNC_RECEIVED) ){ //){ //Zleæ transmisjê po koleji transmisjê kolejnych paczek
    17b0:	80 91 72 02 	lds	r24, 0x0272	; 0x800272 <can_state>
    17b4:	81 ff       	sbrs	r24, 1
    17b6:	40 c0       	rjmp	.+128    	; 0x1838 <CAN_task+0x7b6>
		static uint8_t mob=MOb_2; //pierwszy MOb odbieraj¹cy
		CANPAGE = ( mob << 4 );						// Selects Message Object 0-5
    17b8:	80 91 1d 01 	lds	r24, 0x011D	; 0x80011d <mob.2079>
    17bc:	82 95       	swap	r24
    17be:	80 7f       	andi	r24, 0xF0	; 240
    17c0:	80 93 ed 00 	sts	0x00ED, r24	; 0x8000ed <__TEXT_REGION_LENGTH__+0x7e00ed>
		if((CANEN2 & ( 1 << mob )) == 0){		//Jeœli MOb jest wolny
    17c4:	80 91 dc 00 	lds	r24, 0x00DC	; 0x8000dc <__TEXT_REGION_LENGTH__+0x7e00dc>
    17c8:	90 e0       	ldi	r25, 0x00	; 0
    17ca:	00 90 1d 01 	lds	r0, 0x011D	; 0x80011d <mob.2079>
    17ce:	02 c0       	rjmp	.+4      	; 0x17d4 <CAN_task+0x752>
    17d0:	95 95       	asr	r25
    17d2:	87 95       	ror	r24
    17d4:	0a 94       	dec	r0
    17d6:	e2 f7       	brpl	.-8      	; 0x17d0 <CAN_task+0x74e>
    17d8:	80 fd       	sbrc	r24, 0
    17da:	19 c0       	rjmp	.+50     	; 0x180e <CAN_task+0x78c>
    17dc:	80 e0       	ldi	r24, 0x00	; 0
    17de:	90 e0       	ldi	r25, 0x00	; 0
			for(uint8_t byte_nr=0; byte_nr<8; byte_nr++  ){
				CANMSG = MOb_data[mob][byte_nr];
    17e0:	aa ef       	ldi	r26, 0xFA	; 250
    17e2:	b0 e0       	ldi	r27, 0x00	; 0
    17e4:	20 91 1d 01 	lds	r18, 0x011D	; 0x80011d <mob.2079>
    17e8:	fc 01       	movw	r30, r24
    17ea:	38 e0       	ldi	r19, 0x08	; 8
    17ec:	23 9f       	mul	r18, r19
    17ee:	e0 0d       	add	r30, r0
    17f0:	f1 1d       	adc	r31, r1
    17f2:	11 24       	eor	r1, r1
    17f4:	e1 58       	subi	r30, 0x81	; 129
    17f6:	fd 4f       	sbci	r31, 0xFD	; 253
    17f8:	20 81       	ld	r18, Z
    17fa:	2c 93       	st	X, r18
    17fc:	01 96       	adiw	r24, 0x01	; 1
	//wysy³anie danych po syncu
	else if( HAS_FLAG(can_state.flags, CAN_FLAG_SYNC_RECEIVED) ){ //){ //Zleæ transmisjê po koleji transmisjê kolejnych paczek
		static uint8_t mob=MOb_2; //pierwszy MOb odbieraj¹cy
		CANPAGE = ( mob << 4 );						// Selects Message Object 0-5
		if((CANEN2 & ( 1 << mob )) == 0){		//Jeœli MOb jest wolny
			for(uint8_t byte_nr=0; byte_nr<8; byte_nr++  ){
    17fe:	88 30       	cpi	r24, 0x08	; 8
    1800:	91 05       	cpc	r25, r1
    1802:	81 f7       	brne	.-32     	; 0x17e4 <CAN_task+0x762>
				CANMSG = MOb_data[mob][byte_nr];
			}
			//czyszczenie rejestru statusu
			CANSTMOB = 0x00;
    1804:	10 92 ee 00 	sts	0x00EE, r1	; 0x8000ee <__TEXT_REGION_LENGTH__+0x7e00ee>
			//komenda nadania
			CANCDMOB = TRANSMISSION | ( 8 << DLC0);//zleæ transmisjê 8 bajtów
    1808:	88 e4       	ldi	r24, 0x48	; 72
    180a:	80 93 ef 00 	sts	0x00EF, r24	; 0x8000ef <__TEXT_REGION_LENGTH__+0x7e00ef>
		}
		if(mob >= MOb_3 ){
    180e:	80 91 1d 01 	lds	r24, 0x011D	; 0x80011d <mob.2079>
    1812:	83 30       	cpi	r24, 0x03	; 3
    1814:	70 f0       	brcs	.+28     	; 0x1832 <CAN_task+0x7b0>
			 mob=MOb_2;
    1816:	82 e0       	ldi	r24, 0x02	; 2
    1818:	80 93 1d 01 	sts	0x011D, r24	; 0x80011d <mob.2079>
			 CLEAR_FLAG(can_state.flags, CAN_FLAG_SYNC_RECEIVED);
    181c:	80 91 72 02 	lds	r24, 0x0272	; 0x800272 <can_state>
    1820:	8d 7f       	andi	r24, 0xFD	; 253
    1822:	80 93 72 02 	sts	0x0272, r24	; 0x800272 <can_state>
			 SET_FLAG(can_state.flags, CAN_FLAG_UPDATE_DATA);
    1826:	80 91 72 02 	lds	r24, 0x0272	; 0x800272 <can_state>
    182a:	84 60       	ori	r24, 0x04	; 4
    182c:	80 93 72 02 	sts	0x0272, r24	; 0x800272 <can_state>
    1830:	08 95       	ret
		}		
		else mob++;
    1832:	8f 5f       	subi	r24, 0xFF	; 255
    1834:	80 93 1d 01 	sts	0x011D, r24	; 0x80011d <mob.2079>
    1838:	08 95       	ret

0000183a <PSC_init>:


void PSC_init(){
	
	//Inicjalizacja portów na wyjœciowe i ustawienie wyjœæ na 0
	DDR(PSC0A_PORT) |= (1<<PSC0A_PIN);
    183a:	50 9a       	sbi	0x0a, 0	; 10
	PORT(PSC0A_PORT) &= ~(_BV(PSC0A_PIN));
    183c:	58 98       	cbi	0x0b, 0	; 11
	PORT(PSC0A_PORT) |= (_BV(PSC0A_PIN));
    183e:	58 9a       	sbi	0x0b, 0	; 11
	
	//rejestr konfiguracjyny
	//PULOCK - jednoczena zmiana rejestrów gdy zwoniony na 0
	//PMODE - 0 One Ramp Mode
	//POPx - 1 aktywny stan wysoki
	PCNF |= (0<<PULOCK) | (0<<PMODE) | (1<<POPB) | (1<<POPA);
    1840:	e5 eb       	ldi	r30, 0xB5	; 181
    1842:	f0 e0       	ldi	r31, 0x00	; 0
    1844:	80 81       	ld	r24, Z
    1846:	8c 60       	ori	r24, 0x0C	; 12
    1848:	80 83       	st	Z, r24
	
	//PPRE - prescaler na wejœciu modu³o- brak preskalera
	//PCLKSEL - ¿ród³o zegara PLL
	//PRUN - start modu³u
	PCTL = (1<<PPRE1) | (0<<PPRE0) | (0<<PCLKSEL) | (0<<SWAP0) | (0<<SWAP1) | (0<<SWAP2);
    184a:	e7 eb       	ldi	r30, 0xB7	; 183
    184c:	f0 e0       	ldi	r31, 0x00	; 0
    184e:	80 e8       	ldi	r24, 0x80	; 128
    1850:	80 83       	st	Z, r24
	//POVEN - zabezpieczenie przed overlapem
	//PELEV - stan wysoki powoduje b³¹d
	//PFLTE0 filtr cyforwy na wejsciu fault
	//PRFM - zatrzymaj modu³ w przypadku b³êdu
	//PMIC0 |= (0<<POVEN0) | (1<<PELEV0) | (1<<PFLTE0) | (1<<PRFM02) | (1<<PRFM01);
	PMIC0 |= (1<<POVEN0) | (0<<PELEV0) | (0<<PFLTE0) | (0<<PRFM02) | (0<<PRFM01);
    1852:	a8 eb       	ldi	r26, 0xB8	; 184
    1854:	b0 e0       	ldi	r27, 0x00	; 0
    1856:	8c 91       	ld	r24, X
    1858:	80 68       	ori	r24, 0x80	; 128
    185a:	8c 93       	st	X, r24
	
	//Przewanie od Overcurrent
	//PIM |= (1<<PEVE0);
	
	//Ustawia TOP licznika
	POCR_RB = PSC_TOP;
    185c:	8f ef       	ldi	r24, 0xFF	; 255
    185e:	97 e0       	ldi	r25, 0x07	; 7
    1860:	90 93 b3 00 	sts	0x00B3, r25	; 0x8000b3 <__TEXT_REGION_LENGTH__+0x7e00b3>
    1864:	80 93 b2 00 	sts	0x00B2, r24	; 0x8000b2 <__TEXT_REGION_LENGTH__+0x7e00b2>
	
	//W³¹cz kana³ 0A
	POC = (1<<POEN0A);
    1868:	81 e0       	ldi	r24, 0x01	; 1
    186a:	80 93 b6 00 	sts	0x00B6, r24	; 0x8000b6 <__TEXT_REGION_LENGTH__+0x7e00b6>
	
	//ustawia wartoœæ pocz¹tkow¹ momentu
	PSC.torque = TORQUE_INIT_VAL;
    186e:	84 e6       	ldi	r24, 0x64	; 100
    1870:	90 e0       	ldi	r25, 0x00	; 0
    1872:	90 93 b0 02 	sts	0x02B0, r25	; 0x8002b0 <PSC+0x1>
    1876:	80 93 af 02 	sts	0x02AF, r24	; 0x8002af <PSC>
	POCR0RA = ((uint32_t)PSC_TOP*init_torque)/1000;
	PCTL |= (1<<PRUN);
}

inline void Disable_PSC(){
	PCTL &= ~(1<<PRUN);
    187a:	80 81       	ld	r24, Z
    187c:	8e 7f       	andi	r24, 0xFE	; 254
    187e:	80 83       	st	Z, r24
    1880:	08 95       	ret

00001882 <Enable_PSC>:
	Disable_PSC();
	
}

inline void Enable_PSC(uint16_t init_torque){
	POCR0RA = ((uint32_t)PSC_TOP*init_torque)/1000;
    1882:	9c 01       	movw	r18, r24
    1884:	af ef       	ldi	r26, 0xFF	; 255
    1886:	b7 e0       	ldi	r27, 0x07	; 7
    1888:	0e 94 8e 0e 	call	0x1d1c	; 0x1d1c <__umulhisi3>
    188c:	28 ee       	ldi	r18, 0xE8	; 232
    188e:	33 e0       	ldi	r19, 0x03	; 3
    1890:	40 e0       	ldi	r20, 0x00	; 0
    1892:	50 e0       	ldi	r21, 0x00	; 0
    1894:	0e 94 3f 0e 	call	0x1c7e	; 0x1c7e <__udivmodsi4>
    1898:	30 93 a3 00 	sts	0x00A3, r19	; 0x8000a3 <__TEXT_REGION_LENGTH__+0x7e00a3>
    189c:	20 93 a2 00 	sts	0x00A2, r18	; 0x8000a2 <__TEXT_REGION_LENGTH__+0x7e00a2>
	PCTL |= (1<<PRUN);
    18a0:	e7 eb       	ldi	r30, 0xB7	; 183
    18a2:	f0 e0       	ldi	r31, 0x00	; 0
    18a4:	80 81       	ld	r24, Z
    18a6:	81 60       	ori	r24, 0x01	; 1
    18a8:	80 83       	st	Z, r24
    18aa:	08 95       	ret

000018ac <Disable_PSC>:
}

inline void Disable_PSC(){
	PCTL &= ~(1<<PRUN);
    18ac:	e7 eb       	ldi	r30, 0xB7	; 183
    18ae:	f0 e0       	ldi	r31, 0x00	; 0
    18b0:	80 81       	ld	r24, Z
    18b2:	8e 7f       	andi	r24, 0xFE	; 254
    18b4:	80 83       	st	Z, r24
    18b6:	08 95       	ret

000018b8 <PSC_Task>:

void PSC_Task(){
	static uint16_t torque_prev = 0;
	static uint16_t duty_cycle=0;
	
	if(PSC.torque != torque_prev){
    18b8:	80 91 af 02 	lds	r24, 0x02AF	; 0x8002af <PSC>
    18bc:	90 91 b0 02 	lds	r25, 0x02B0	; 0x8002b0 <PSC+0x1>
    18c0:	20 91 2d 01 	lds	r18, 0x012D	; 0x80012d <torque_prev.1541>
    18c4:	30 91 2e 01 	lds	r19, 0x012E	; 0x80012e <torque_prev.1541+0x1>
    18c8:	82 17       	cp	r24, r18
    18ca:	93 07       	cpc	r25, r19
    18cc:	49 f1       	breq	.+82     	; 0x1920 <PSC_Task+0x68>
		
		duty_cycle = PSC.torque;
			
		if(duty_cycle>1000){
    18ce:	89 3e       	cpi	r24, 0xE9	; 233
    18d0:	23 e0       	ldi	r18, 0x03	; 3
    18d2:	92 07       	cpc	r25, r18
    18d4:	28 f4       	brcc	.+10     	; 0x18e0 <PSC_Task+0x28>
	static uint16_t torque_prev = 0;
	static uint16_t duty_cycle=0;
	
	if(PSC.torque != torque_prev){
		
		duty_cycle = PSC.torque;
    18d6:	90 93 2c 01 	sts	0x012C, r25	; 0x80012c <duty_cycle.1542+0x1>
    18da:	80 93 2b 01 	sts	0x012B, r24	; 0x80012b <duty_cycle.1542>
    18de:	06 c0       	rjmp	.+12     	; 0x18ec <PSC_Task+0x34>
			
		if(duty_cycle>1000){
			duty_cycle=1000;
    18e0:	88 ee       	ldi	r24, 0xE8	; 232
    18e2:	93 e0       	ldi	r25, 0x03	; 3
    18e4:	90 93 2c 01 	sts	0x012C, r25	; 0x80012c <duty_cycle.1542+0x1>
    18e8:	80 93 2b 01 	sts	0x012B, r24	; 0x80012b <duty_cycle.1542>
		}
		
		POCR0RA = ((uint32_t)PSC_TOP*duty_cycle)/1000;
    18ec:	20 91 2b 01 	lds	r18, 0x012B	; 0x80012b <duty_cycle.1542>
    18f0:	30 91 2c 01 	lds	r19, 0x012C	; 0x80012c <duty_cycle.1542+0x1>
    18f4:	af ef       	ldi	r26, 0xFF	; 255
    18f6:	b7 e0       	ldi	r27, 0x07	; 7
    18f8:	0e 94 8e 0e 	call	0x1d1c	; 0x1d1c <__umulhisi3>
    18fc:	28 ee       	ldi	r18, 0xE8	; 232
    18fe:	33 e0       	ldi	r19, 0x03	; 3
    1900:	40 e0       	ldi	r20, 0x00	; 0
    1902:	50 e0       	ldi	r21, 0x00	; 0
    1904:	0e 94 3f 0e 	call	0x1c7e	; 0x1c7e <__udivmodsi4>
    1908:	30 93 a3 00 	sts	0x00A3, r19	; 0x8000a3 <__TEXT_REGION_LENGTH__+0x7e00a3>
    190c:	20 93 a2 00 	sts	0x00A2, r18	; 0x8000a2 <__TEXT_REGION_LENGTH__+0x7e00a2>
		
		torque_prev = PSC.torque;
    1910:	80 91 af 02 	lds	r24, 0x02AF	; 0x8002af <PSC>
    1914:	90 91 b0 02 	lds	r25, 0x02B0	; 0x8002b0 <PSC+0x1>
    1918:	90 93 2e 01 	sts	0x012E, r25	; 0x80012e <torque_prev.1541+0x1>
    191c:	80 93 2d 01 	sts	0x012D, r24	; 0x80012d <torque_prev.1541>
    1920:	08 95       	ret

00001922 <__vector_5>:
	
		 
}

//przerwanie od overcurrent
SIGNAL (PSC_FAULT_vect){
    1922:	1f 92       	push	r1
    1924:	0f 92       	push	r0
    1926:	0f b6       	in	r0, 0x3f	; 63
    1928:	0f 92       	push	r0
    192a:	11 24       	eor	r1, r1
    192c:	8f 93       	push	r24
    192e:	ef 93       	push	r30
    1930:	ff 93       	push	r31
	
	PSC_CLEAR_INTERRUPT
    1932:	ec eb       	ldi	r30, 0xBC	; 188
    1934:	f0 e0       	ldi	r31, 0x00	; 0
    1936:	80 81       	ld	r24, Z
    1938:	82 60       	ori	r24, 0x02	; 2
    193a:	80 83       	st	Z, r24
    193c:	ff 91       	pop	r31
    193e:	ef 91       	pop	r30
    1940:	8f 91       	pop	r24
    1942:	0f 90       	pop	r0
    1944:	0f be       	out	0x3f, r0	; 63
    1946:	0f 90       	pop	r0
    1948:	1f 90       	pop	r1
    194a:	18 95       	reti

0000194c <timer_init>:
		return (time_2 - time_1);
	}
	else{
		return (time_2+(0xFFFF-time_1));
	}
};
    194c:	84 b5       	in	r24, 0x24	; 36
    194e:	82 60       	ori	r24, 0x02	; 2
    1950:	84 bd       	out	0x24, r24	; 36
    1952:	89 ef       	ldi	r24, 0xF9	; 249
    1954:	87 bd       	out	0x27, r24	; 39
    1956:	ee e6       	ldi	r30, 0x6E	; 110
    1958:	f0 e0       	ldi	r31, 0x00	; 0
    195a:	80 81       	ld	r24, Z
    195c:	82 60       	ori	r24, 0x02	; 2
    195e:	80 83       	st	Z, r24
    1960:	85 b5       	in	r24, 0x25	; 37
    1962:	83 60       	ori	r24, 0x03	; 3
    1964:	85 bd       	out	0x25, r24	; 37
    1966:	e1 e8       	ldi	r30, 0x81	; 129
    1968:	f0 e0       	ldi	r31, 0x00	; 0
    196a:	80 81       	ld	r24, Z
    196c:	83 60       	ori	r24, 0x03	; 3
    196e:	80 83       	st	Z, r24
    1970:	08 95       	ret

00001972 <timer_get>:
    1972:	80 91 31 01 	lds	r24, 0x0131	; 0x800131 <timer>
    1976:	90 91 32 01 	lds	r25, 0x0132	; 0x800132 <timer+0x1>
    197a:	08 95       	ret

0000197c <timer_time_elapsed>:
    197c:	20 91 31 01 	lds	r18, 0x0131	; 0x800131 <timer>
    1980:	30 91 32 01 	lds	r19, 0x0132	; 0x800132 <timer+0x1>
    1984:	28 17       	cp	r18, r24
    1986:	39 07       	cpc	r19, r25
    1988:	28 f0       	brcs	.+10     	; 0x1994 <timer_time_elapsed+0x18>
    198a:	a9 01       	movw	r20, r18
    198c:	48 1b       	sub	r20, r24
    198e:	59 0b       	sbc	r21, r25
    1990:	ca 01       	movw	r24, r20
    1992:	08 95       	ret
    1994:	28 1b       	sub	r18, r24
    1996:	39 0b       	sbc	r19, r25
    1998:	c9 01       	movw	r24, r18
    199a:	01 97       	sbiw	r24, 0x01	; 1
    199c:	08 95       	ret

0000199e <timer_time_elapsed_us>:
    199e:	20 91 84 00 	lds	r18, 0x0084	; 0x800084 <__TEXT_REGION_LENGTH__+0x7e0084>
    19a2:	30 91 85 00 	lds	r19, 0x0085	; 0x800085 <__TEXT_REGION_LENGTH__+0x7e0085>
    19a6:	28 17       	cp	r18, r24
    19a8:	39 07       	cpc	r19, r25
    19aa:	28 f0       	brcs	.+10     	; 0x19b6 <timer_time_elapsed_us+0x18>
    19ac:	a9 01       	movw	r20, r18
    19ae:	48 1b       	sub	r20, r24
    19b0:	59 0b       	sbc	r21, r25
    19b2:	ca 01       	movw	r24, r20
    19b4:	08 95       	ret
    19b6:	28 1b       	sub	r18, r24
    19b8:	39 0b       	sbc	r19, r25
    19ba:	c9 01       	movw	r24, r18
    19bc:	01 97       	sbiw	r24, 0x01	; 1
    19be:	08 95       	ret

000019c0 <timer_new_tick>:
    19c0:	80 91 2f 01 	lds	r24, 0x012F	; 0x80012f <time_stamp.1525>
    19c4:	90 91 30 01 	lds	r25, 0x0130	; 0x800130 <time_stamp.1525+0x1>
    19c8:	0e 94 cf 0c 	call	0x199e	; 0x199e <timer_time_elapsed_us>
    19cc:	49 97       	sbiw	r24, 0x19	; 25
    19ce:	50 f0       	brcs	.+20     	; 0x19e4 <timer_new_tick+0x24>
    19d0:	80 91 84 00 	lds	r24, 0x0084	; 0x800084 <__TEXT_REGION_LENGTH__+0x7e0084>
    19d4:	90 91 85 00 	lds	r25, 0x0085	; 0x800085 <__TEXT_REGION_LENGTH__+0x7e0085>
    19d8:	90 93 30 01 	sts	0x0130, r25	; 0x800130 <time_stamp.1525+0x1>
    19dc:	80 93 2f 01 	sts	0x012F, r24	; 0x80012f <time_stamp.1525>
    19e0:	81 e0       	ldi	r24, 0x01	; 1
    19e2:	08 95       	ret
    19e4:	80 e0       	ldi	r24, 0x00	; 0
    19e6:	08 95       	ret

000019e8 <__vector_15>:

//Przepe³nienie linika 0
SIGNAL(TIMER0_COMPA_vect) {
    19e8:	1f 92       	push	r1
    19ea:	0f 92       	push	r0
    19ec:	0f b6       	in	r0, 0x3f	; 63
    19ee:	0f 92       	push	r0
    19f0:	11 24       	eor	r1, r1
    19f2:	8f 93       	push	r24
    19f4:	9f 93       	push	r25
	//zwiêksz TIMER
	timer++;
    19f6:	80 91 31 01 	lds	r24, 0x0131	; 0x800131 <timer>
    19fa:	90 91 32 01 	lds	r25, 0x0132	; 0x800132 <timer+0x1>
    19fe:	01 96       	adiw	r24, 0x01	; 1
    1a00:	90 93 32 01 	sts	0x0132, r25	; 0x800132 <timer+0x1>
    1a04:	80 93 31 01 	sts	0x0131, r24	; 0x800131 <timer>
}
    1a08:	9f 91       	pop	r25
    1a0a:	8f 91       	pop	r24
    1a0c:	0f 90       	pop	r0
    1a0e:	0f be       	out	0x3f, r0	; 63
    1a10:	0f 90       	pop	r0
    1a12:	1f 90       	pop	r1
    1a14:	18 95       	reti

00001a16 <__vector_14>:

//Przepe³nienie linika 1
SIGNAL(TIMER1_OVF_vect){
    1a16:	1f 92       	push	r1
    1a18:	0f 92       	push	r0
    1a1a:	0f b6       	in	r0, 0x3f	; 63
    1a1c:	0f 92       	push	r0
    1a1e:	11 24       	eor	r1, r1

}
    1a20:	0f 90       	pop	r0
    1a22:	0f be       	out	0x3f, r0	; 63
    1a24:	0f 90       	pop	r0
    1a26:	1f 90       	pop	r1
    1a28:	18 95       	reti

00001a2a <__vector_12>:
//Comapare A Timer1
SIGNAL(TIMER1_COMPA_vect){
    1a2a:	1f 92       	push	r1
    1a2c:	0f 92       	push	r0
    1a2e:	0f b6       	in	r0, 0x3f	; 63
    1a30:	0f 92       	push	r0
    1a32:	11 24       	eor	r1, r1
		
}
    1a34:	0f 90       	pop	r0
    1a36:	0f be       	out	0x3f, r0	; 63
    1a38:	0f 90       	pop	r0
    1a3a:	1f 90       	pop	r1
    1a3c:	18 95       	reti

00001a3e <__vector_13>:
//Comapare B Timer1
SIGNAL(TIMER1_COMPB_vect ){
    1a3e:	1f 92       	push	r1
    1a40:	0f 92       	push	r0
    1a42:	0f b6       	in	r0, 0x3f	; 63
    1a44:	0f 92       	push	r0
    1a46:	11 24       	eor	r1, r1
	
}
    1a48:	0f 90       	pop	r0
    1a4a:	0f be       	out	0x3f, r0	; 63
    1a4c:	0f 90       	pop	r0
    1a4e:	1f 90       	pop	r1
    1a50:	18 95       	reti

00001a52 <__vector_20>:
{
	
    while (*s) 
      uart_putc(*s++);

}/* uart_puts */
    1a52:	1f 92       	push	r1
    1a54:	0f 92       	push	r0
    1a56:	0f b6       	in	r0, 0x3f	; 63
    1a58:	0f 92       	push	r0
    1a5a:	11 24       	eor	r1, r1
    1a5c:	8f 93       	push	r24
    1a5e:	9f 93       	push	r25
    1a60:	ef 93       	push	r30
    1a62:	ff 93       	push	r31
    1a64:	80 91 c9 00 	lds	r24, 0x00C9	; 0x8000c9 <__TEXT_REGION_LENGTH__+0x7e00c9>
    1a68:	80 ff       	sbrs	r24, 0
    1a6a:	1a c0       	rjmp	.+52     	; 0x1aa0 <__vector_20+0x4e>
    1a6c:	e9 ec       	ldi	r30, 0xC9	; 201
    1a6e:	f0 e0       	ldi	r31, 0x00	; 0
    1a70:	80 81       	ld	r24, Z
    1a72:	81 60       	ori	r24, 0x01	; 1
    1a74:	80 83       	st	Z, r24
    1a76:	90 91 d2 00 	lds	r25, 0x00D2	; 0x8000d2 <__TEXT_REGION_LENGTH__+0x7e00d2>
    1a7a:	e0 91 35 01 	lds	r30, 0x0135	; 0x800135 <UART_RxHead>
    1a7e:	ef 5f       	subi	r30, 0xFF	; 255
    1a80:	ef 71       	andi	r30, 0x1F	; 31
    1a82:	80 91 34 01 	lds	r24, 0x0134	; 0x800134 <UART_RxTail>
    1a86:	e8 17       	cp	r30, r24
    1a88:	31 f0       	breq	.+12     	; 0x1a96 <__vector_20+0x44>
    1a8a:	e0 93 35 01 	sts	0x0135, r30	; 0x800135 <UART_RxHead>
    1a8e:	f0 e0       	ldi	r31, 0x00	; 0
    1a90:	e8 5c       	subi	r30, 0xC8	; 200
    1a92:	fe 4f       	sbci	r31, 0xFE	; 254
    1a94:	90 83       	st	Z, r25
    1a96:	80 91 33 01 	lds	r24, 0x0133	; 0x800133 <UART_LastRxError>
    1a9a:	82 60       	ori	r24, 0x02	; 2
    1a9c:	80 93 33 01 	sts	0x0133, r24	; 0x800133 <UART_LastRxError>
    1aa0:	80 91 c9 00 	lds	r24, 0x00C9	; 0x8000c9 <__TEXT_REGION_LENGTH__+0x7e00c9>
    1aa4:	81 ff       	sbrs	r24, 1
    1aa6:	1d c0       	rjmp	.+58     	; 0x1ae2 <__vector_20+0x90>
    1aa8:	e9 ec       	ldi	r30, 0xC9	; 201
    1aaa:	f0 e0       	ldi	r31, 0x00	; 0
    1aac:	80 81       	ld	r24, Z
    1aae:	82 60       	ori	r24, 0x02	; 2
    1ab0:	80 83       	st	Z, r24
    1ab2:	90 91 37 01 	lds	r25, 0x0137	; 0x800137 <UART_TxHead>
    1ab6:	80 91 36 01 	lds	r24, 0x0136	; 0x800136 <UART_TxTail>
    1aba:	98 17       	cp	r25, r24
    1abc:	69 f0       	breq	.+26     	; 0x1ad8 <__vector_20+0x86>
    1abe:	e0 91 36 01 	lds	r30, 0x0136	; 0x800136 <UART_TxTail>
    1ac2:	ef 5f       	subi	r30, 0xFF	; 255
    1ac4:	ef 77       	andi	r30, 0x7F	; 127
    1ac6:	e0 93 36 01 	sts	0x0136, r30	; 0x800136 <UART_TxTail>
    1aca:	f0 e0       	ldi	r31, 0x00	; 0
    1acc:	e8 5a       	subi	r30, 0xA8	; 168
    1ace:	fe 4f       	sbci	r31, 0xFE	; 254
    1ad0:	80 81       	ld	r24, Z
    1ad2:	80 93 d2 00 	sts	0x00D2, r24	; 0x8000d2 <__TEXT_REGION_LENGTH__+0x7e00d2>
    1ad6:	05 c0       	rjmp	.+10     	; 0x1ae2 <__vector_20+0x90>
    1ad8:	ea ec       	ldi	r30, 0xCA	; 202
    1ada:	f0 e0       	ldi	r31, 0x00	; 0
    1adc:	80 81       	ld	r24, Z
    1ade:	8d 7f       	andi	r24, 0xFD	; 253
    1ae0:	80 83       	st	Z, r24
    1ae2:	ff 91       	pop	r31
    1ae4:	ef 91       	pop	r30
    1ae6:	9f 91       	pop	r25
    1ae8:	8f 91       	pop	r24
    1aea:	0f 90       	pop	r0
    1aec:	0f be       	out	0x3f, r0	; 63
    1aee:	0f 90       	pop	r0
    1af0:	1f 90       	pop	r1
    1af2:	18 95       	reti

00001af4 <uart_init>:
    1af4:	cf 93       	push	r28
    1af6:	df 93       	push	r29
    1af8:	10 92 37 01 	sts	0x0137, r1	; 0x800137 <UART_TxHead>
    1afc:	10 92 36 01 	sts	0x0136, r1	; 0x800136 <UART_TxTail>
    1b00:	10 92 35 01 	sts	0x0135, r1	; 0x800135 <UART_RxHead>
    1b04:	10 92 34 01 	sts	0x0134, r1	; 0x800134 <UART_RxTail>
    1b08:	c8 ec       	ldi	r28, 0xC8	; 200
    1b0a:	d0 e0       	ldi	r29, 0x00	; 0
    1b0c:	20 e8       	ldi	r18, 0x80	; 128
    1b0e:	28 83       	st	Y, r18
    1b10:	9c 01       	movw	r18, r24
    1b12:	40 e0       	ldi	r20, 0x00	; 0
    1b14:	50 e0       	ldi	r21, 0x00	; 0
    1b16:	60 e4       	ldi	r22, 0x40	; 64
    1b18:	72 e4       	ldi	r23, 0x42	; 66
    1b1a:	8f e0       	ldi	r24, 0x0F	; 15
    1b1c:	90 e0       	ldi	r25, 0x00	; 0
    1b1e:	0e 94 61 0e 	call	0x1cc2	; 0x1cc2 <__divmodsi4>
    1b22:	da 01       	movw	r26, r20
    1b24:	c9 01       	movw	r24, r18
    1b26:	01 97       	sbiw	r24, 0x01	; 1
    1b28:	a1 09       	sbc	r26, r1
    1b2a:	b1 09       	sbc	r27, r1
    1b2c:	89 2f       	mov	r24, r25
    1b2e:	9a 2f       	mov	r25, r26
    1b30:	ab 2f       	mov	r26, r27
    1b32:	bb 27       	eor	r27, r27
    1b34:	a7 fd       	sbrc	r26, 7
    1b36:	ba 95       	dec	r27
    1b38:	80 93 ce 00 	sts	0x00CE, r24	; 0x8000ce <__TEXT_REGION_LENGTH__+0x7e00ce>
    1b3c:	21 50       	subi	r18, 0x01	; 1
    1b3e:	20 93 cd 00 	sts	0x00CD, r18	; 0x8000cd <__TEXT_REGION_LENGTH__+0x7e00cd>
    1b42:	80 e9       	ldi	r24, 0x90	; 144
    1b44:	80 93 cc 00 	sts	0x00CC, r24	; 0x8000cc <__TEXT_REGION_LENGTH__+0x7e00cc>
    1b48:	ea ec       	ldi	r30, 0xCA	; 202
    1b4a:	f0 e0       	ldi	r31, 0x00	; 0
    1b4c:	80 81       	ld	r24, Z
    1b4e:	81 60       	ori	r24, 0x01	; 1
    1b50:	80 83       	st	Z, r24
    1b52:	88 81       	ld	r24, Y
    1b54:	8f 60       	ori	r24, 0x0F	; 15
    1b56:	88 83       	st	Y, r24
    1b58:	df 91       	pop	r29
    1b5a:	cf 91       	pop	r28
    1b5c:	08 95       	ret

00001b5e <uart_getc_s>:
    1b5e:	90 91 35 01 	lds	r25, 0x0135	; 0x800135 <UART_RxHead>
    1b62:	80 91 34 01 	lds	r24, 0x0134	; 0x800134 <UART_RxTail>
    1b66:	98 17       	cp	r25, r24
    1b68:	a9 f0       	breq	.+42     	; 0x1b94 <uart_getc_s+0x36>
    1b6a:	90 91 34 01 	lds	r25, 0x0134	; 0x800134 <UART_RxTail>
    1b6e:	9f 5f       	subi	r25, 0xFF	; 255
    1b70:	9f 71       	andi	r25, 0x1F	; 31
    1b72:	e9 2f       	mov	r30, r25
    1b74:	f0 e0       	ldi	r31, 0x00	; 0
    1b76:	e8 5c       	subi	r30, 0xC8	; 200
    1b78:	fe 4f       	sbci	r31, 0xFE	; 254
    1b7a:	20 81       	ld	r18, Z
    1b7c:	80 91 33 01 	lds	r24, 0x0133	; 0x800133 <UART_LastRxError>
    1b80:	90 93 34 01 	sts	0x0134, r25	; 0x800134 <UART_RxTail>
    1b84:	10 92 33 01 	sts	0x0133, r1	; 0x800133 <UART_LastRxError>
    1b88:	90 e0       	ldi	r25, 0x00	; 0
    1b8a:	98 2f       	mov	r25, r24
    1b8c:	88 27       	eor	r24, r24
    1b8e:	82 0f       	add	r24, r18
    1b90:	91 1d       	adc	r25, r1
    1b92:	08 95       	ret
    1b94:	80 e0       	ldi	r24, 0x00	; 0
    1b96:	91 e0       	ldi	r25, 0x01	; 1
    1b98:	08 95       	ret

00001b9a <uart_putc>:
    1b9a:	90 91 35 01 	lds	r25, 0x0135	; 0x800135 <UART_RxHead>
    1b9e:	90 91 34 01 	lds	r25, 0x0134	; 0x800134 <UART_RxTail>
    1ba2:	20 91 37 01 	lds	r18, 0x0137	; 0x800137 <UART_TxHead>
    1ba6:	2f 5f       	subi	r18, 0xFF	; 255
    1ba8:	2f 77       	andi	r18, 0x7F	; 127
    1baa:	90 91 36 01 	lds	r25, 0x0136	; 0x800136 <UART_TxTail>
    1bae:	29 17       	cp	r18, r25
    1bb0:	e1 f3       	breq	.-8      	; 0x1baa <uart_putc+0x10>
    1bb2:	42 2f       	mov	r20, r18
    1bb4:	50 e0       	ldi	r21, 0x00	; 0
    1bb6:	fa 01       	movw	r30, r20
    1bb8:	e8 5a       	subi	r30, 0xA8	; 168
    1bba:	fe 4f       	sbci	r31, 0xFE	; 254
    1bbc:	80 83       	st	Z, r24
    1bbe:	20 93 37 01 	sts	0x0137, r18	; 0x800137 <UART_TxHead>
    1bc2:	80 91 c9 00 	lds	r24, 0x00C9	; 0x8000c9 <__TEXT_REGION_LENGTH__+0x7e00c9>
    1bc6:	84 fd       	sbrc	r24, 4
    1bc8:	0d c0       	rjmp	.+26     	; 0x1be4 <uart_putc+0x4a>
    1bca:	ea ec       	ldi	r30, 0xCA	; 202
    1bcc:	f0 e0       	ldi	r31, 0x00	; 0
    1bce:	80 81       	ld	r24, Z
    1bd0:	82 60       	ori	r24, 0x02	; 2
    1bd2:	80 83       	st	Z, r24
    1bd4:	20 93 36 01 	sts	0x0136, r18	; 0x800136 <UART_TxTail>
    1bd8:	fa 01       	movw	r30, r20
    1bda:	e8 5a       	subi	r30, 0xA8	; 168
    1bdc:	fe 4f       	sbci	r31, 0xFE	; 254
    1bde:	80 81       	ld	r24, Z
    1be0:	80 93 d2 00 	sts	0x00D2, r24	; 0x8000d2 <__TEXT_REGION_LENGTH__+0x7e00d2>
    1be4:	08 95       	ret

00001be6 <uart_putc_s>:
    1be6:	90 91 35 01 	lds	r25, 0x0135	; 0x800135 <UART_RxHead>
    1bea:	90 91 34 01 	lds	r25, 0x0134	; 0x800134 <UART_RxTail>
    1bee:	20 91 37 01 	lds	r18, 0x0137	; 0x800137 <UART_TxHead>
    1bf2:	2f 5f       	subi	r18, 0xFF	; 255
    1bf4:	2f 77       	andi	r18, 0x7F	; 127
    1bf6:	90 91 36 01 	lds	r25, 0x0136	; 0x800136 <UART_TxTail>
    1bfa:	29 17       	cp	r18, r25
    1bfc:	e1 f3       	breq	.-8      	; 0x1bf6 <uart_putc_s+0x10>
    1bfe:	42 2f       	mov	r20, r18
    1c00:	50 e0       	ldi	r21, 0x00	; 0
    1c02:	fa 01       	movw	r30, r20
    1c04:	e8 5a       	subi	r30, 0xA8	; 168
    1c06:	fe 4f       	sbci	r31, 0xFE	; 254
    1c08:	80 83       	st	Z, r24
    1c0a:	20 93 37 01 	sts	0x0137, r18	; 0x800137 <UART_TxHead>
    1c0e:	80 91 c9 00 	lds	r24, 0x00C9	; 0x8000c9 <__TEXT_REGION_LENGTH__+0x7e00c9>
    1c12:	84 fd       	sbrc	r24, 4
    1c14:	0d c0       	rjmp	.+26     	; 0x1c30 <uart_putc_s+0x4a>
    1c16:	ea ec       	ldi	r30, 0xCA	; 202
    1c18:	f0 e0       	ldi	r31, 0x00	; 0
    1c1a:	80 81       	ld	r24, Z
    1c1c:	82 60       	ori	r24, 0x02	; 2
    1c1e:	80 83       	st	Z, r24
    1c20:	20 93 36 01 	sts	0x0136, r18	; 0x800136 <UART_TxTail>
    1c24:	fa 01       	movw	r30, r20
    1c26:	e8 5a       	subi	r30, 0xA8	; 168
    1c28:	fe 4f       	sbci	r31, 0xFE	; 254
    1c2a:	80 81       	ld	r24, Z
    1c2c:	80 93 d2 00 	sts	0x00D2, r24	; 0x8000d2 <__TEXT_REGION_LENGTH__+0x7e00d2>
    1c30:	08 95       	ret

00001c32 <uart_puts_p>:
Purpose:  transmit string from program memory to UART
Input:    program memory string to be transmitted
Returns:  none
**************************************************************************/
void uart_puts_p(const char *progmem_s )
{
    1c32:	cf 93       	push	r28
    1c34:	df 93       	push	r29
    register char c;
    
	
    while ( (c = pgm_read_byte(progmem_s++)) ) 
    1c36:	ec 01       	movw	r28, r24
    1c38:	21 96       	adiw	r28, 0x01	; 1
    1c3a:	fc 01       	movw	r30, r24
    1c3c:	84 91       	lpm	r24, Z
    1c3e:	88 23       	and	r24, r24
    1c40:	39 f0       	breq	.+14     	; 0x1c50 <uart_puts_p+0x1e>
      uart_putc(c);
    1c42:	0e 94 cd 0d 	call	0x1b9a	; 0x1b9a <uart_putc>
void uart_puts_p(const char *progmem_s )
{
    register char c;
    
	
    while ( (c = pgm_read_byte(progmem_s++)) ) 
    1c46:	fe 01       	movw	r30, r28
    1c48:	84 91       	lpm	r24, Z
    1c4a:	21 96       	adiw	r28, 0x01	; 1
    1c4c:	81 11       	cpse	r24, r1
    1c4e:	f9 cf       	rjmp	.-14     	; 0x1c42 <uart_puts_p+0x10>
      uart_putc(c);

}/* uart_puts_p */
    1c50:	df 91       	pop	r29
    1c52:	cf 91       	pop	r28
    1c54:	08 95       	ret

00001c56 <__divmodhi4>:
    1c56:	97 fb       	bst	r25, 7
    1c58:	07 2e       	mov	r0, r23
    1c5a:	16 f4       	brtc	.+4      	; 0x1c60 <__divmodhi4+0xa>
    1c5c:	00 94       	com	r0
    1c5e:	07 d0       	rcall	.+14     	; 0x1c6e <__divmodhi4_neg1>
    1c60:	77 fd       	sbrc	r23, 7
    1c62:	09 d0       	rcall	.+18     	; 0x1c76 <__divmodhi4_neg2>
    1c64:	0e 94 a4 0e 	call	0x1d48	; 0x1d48 <__udivmodhi4>
    1c68:	07 fc       	sbrc	r0, 7
    1c6a:	05 d0       	rcall	.+10     	; 0x1c76 <__divmodhi4_neg2>
    1c6c:	3e f4       	brtc	.+14     	; 0x1c7c <__divmodhi4_exit>

00001c6e <__divmodhi4_neg1>:
    1c6e:	90 95       	com	r25
    1c70:	81 95       	neg	r24
    1c72:	9f 4f       	sbci	r25, 0xFF	; 255
    1c74:	08 95       	ret

00001c76 <__divmodhi4_neg2>:
    1c76:	70 95       	com	r23
    1c78:	61 95       	neg	r22
    1c7a:	7f 4f       	sbci	r23, 0xFF	; 255

00001c7c <__divmodhi4_exit>:
    1c7c:	08 95       	ret

00001c7e <__udivmodsi4>:
    1c7e:	a1 e2       	ldi	r26, 0x21	; 33
    1c80:	1a 2e       	mov	r1, r26
    1c82:	aa 1b       	sub	r26, r26
    1c84:	bb 1b       	sub	r27, r27
    1c86:	fd 01       	movw	r30, r26
    1c88:	0d c0       	rjmp	.+26     	; 0x1ca4 <__udivmodsi4_ep>

00001c8a <__udivmodsi4_loop>:
    1c8a:	aa 1f       	adc	r26, r26
    1c8c:	bb 1f       	adc	r27, r27
    1c8e:	ee 1f       	adc	r30, r30
    1c90:	ff 1f       	adc	r31, r31
    1c92:	a2 17       	cp	r26, r18
    1c94:	b3 07       	cpc	r27, r19
    1c96:	e4 07       	cpc	r30, r20
    1c98:	f5 07       	cpc	r31, r21
    1c9a:	20 f0       	brcs	.+8      	; 0x1ca4 <__udivmodsi4_ep>
    1c9c:	a2 1b       	sub	r26, r18
    1c9e:	b3 0b       	sbc	r27, r19
    1ca0:	e4 0b       	sbc	r30, r20
    1ca2:	f5 0b       	sbc	r31, r21

00001ca4 <__udivmodsi4_ep>:
    1ca4:	66 1f       	adc	r22, r22
    1ca6:	77 1f       	adc	r23, r23
    1ca8:	88 1f       	adc	r24, r24
    1caa:	99 1f       	adc	r25, r25
    1cac:	1a 94       	dec	r1
    1cae:	69 f7       	brne	.-38     	; 0x1c8a <__udivmodsi4_loop>
    1cb0:	60 95       	com	r22
    1cb2:	70 95       	com	r23
    1cb4:	80 95       	com	r24
    1cb6:	90 95       	com	r25
    1cb8:	9b 01       	movw	r18, r22
    1cba:	ac 01       	movw	r20, r24
    1cbc:	bd 01       	movw	r22, r26
    1cbe:	cf 01       	movw	r24, r30
    1cc0:	08 95       	ret

00001cc2 <__divmodsi4>:
    1cc2:	05 2e       	mov	r0, r21
    1cc4:	97 fb       	bst	r25, 7
    1cc6:	1e f4       	brtc	.+6      	; 0x1cce <__divmodsi4+0xc>
    1cc8:	00 94       	com	r0
    1cca:	0e 94 78 0e 	call	0x1cf0	; 0x1cf0 <__negsi2>
    1cce:	57 fd       	sbrc	r21, 7
    1cd0:	07 d0       	rcall	.+14     	; 0x1ce0 <__divmodsi4_neg2>
    1cd2:	0e 94 3f 0e 	call	0x1c7e	; 0x1c7e <__udivmodsi4>
    1cd6:	07 fc       	sbrc	r0, 7
    1cd8:	03 d0       	rcall	.+6      	; 0x1ce0 <__divmodsi4_neg2>
    1cda:	4e f4       	brtc	.+18     	; 0x1cee <__divmodsi4_exit>
    1cdc:	0c 94 78 0e 	jmp	0x1cf0	; 0x1cf0 <__negsi2>

00001ce0 <__divmodsi4_neg2>:
    1ce0:	50 95       	com	r21
    1ce2:	40 95       	com	r20
    1ce4:	30 95       	com	r19
    1ce6:	21 95       	neg	r18
    1ce8:	3f 4f       	sbci	r19, 0xFF	; 255
    1cea:	4f 4f       	sbci	r20, 0xFF	; 255
    1cec:	5f 4f       	sbci	r21, 0xFF	; 255

00001cee <__divmodsi4_exit>:
    1cee:	08 95       	ret

00001cf0 <__negsi2>:
    1cf0:	90 95       	com	r25
    1cf2:	80 95       	com	r24
    1cf4:	70 95       	com	r23
    1cf6:	61 95       	neg	r22
    1cf8:	7f 4f       	sbci	r23, 0xFF	; 255
    1cfa:	8f 4f       	sbci	r24, 0xFF	; 255
    1cfc:	9f 4f       	sbci	r25, 0xFF	; 255
    1cfe:	08 95       	ret

00001d00 <__tablejump2__>:
    1d00:	ee 0f       	add	r30, r30
    1d02:	ff 1f       	adc	r31, r31
    1d04:	05 90       	lpm	r0, Z+
    1d06:	f4 91       	lpm	r31, Z
    1d08:	e0 2d       	mov	r30, r0
    1d0a:	09 94       	ijmp

00001d0c <__mulhisi3>:
    1d0c:	0e 94 8e 0e 	call	0x1d1c	; 0x1d1c <__umulhisi3>
    1d10:	33 23       	and	r19, r19
    1d12:	12 f4       	brpl	.+4      	; 0x1d18 <__mulhisi3+0xc>
    1d14:	8a 1b       	sub	r24, r26
    1d16:	9b 0b       	sbc	r25, r27
    1d18:	0c 94 9f 0e 	jmp	0x1d3e	; 0x1d3e <__usmulhisi3_tail>

00001d1c <__umulhisi3>:
    1d1c:	a2 9f       	mul	r26, r18
    1d1e:	b0 01       	movw	r22, r0
    1d20:	b3 9f       	mul	r27, r19
    1d22:	c0 01       	movw	r24, r0
    1d24:	a3 9f       	mul	r26, r19
    1d26:	70 0d       	add	r23, r0
    1d28:	81 1d       	adc	r24, r1
    1d2a:	11 24       	eor	r1, r1
    1d2c:	91 1d       	adc	r25, r1
    1d2e:	b2 9f       	mul	r27, r18
    1d30:	70 0d       	add	r23, r0
    1d32:	81 1d       	adc	r24, r1
    1d34:	11 24       	eor	r1, r1
    1d36:	91 1d       	adc	r25, r1
    1d38:	08 95       	ret

00001d3a <__usmulhisi3>:
    1d3a:	0e 94 8e 0e 	call	0x1d1c	; 0x1d1c <__umulhisi3>

00001d3e <__usmulhisi3_tail>:
    1d3e:	b7 ff       	sbrs	r27, 7
    1d40:	08 95       	ret
    1d42:	82 1b       	sub	r24, r18
    1d44:	93 0b       	sbc	r25, r19
    1d46:	08 95       	ret

00001d48 <__udivmodhi4>:
    1d48:	aa 1b       	sub	r26, r26
    1d4a:	bb 1b       	sub	r27, r27
    1d4c:	51 e1       	ldi	r21, 0x11	; 17
    1d4e:	07 c0       	rjmp	.+14     	; 0x1d5e <__udivmodhi4_ep>

00001d50 <__udivmodhi4_loop>:
    1d50:	aa 1f       	adc	r26, r26
    1d52:	bb 1f       	adc	r27, r27
    1d54:	a6 17       	cp	r26, r22
    1d56:	b7 07       	cpc	r27, r23
    1d58:	10 f0       	brcs	.+4      	; 0x1d5e <__udivmodhi4_ep>
    1d5a:	a6 1b       	sub	r26, r22
    1d5c:	b7 0b       	sbc	r27, r23

00001d5e <__udivmodhi4_ep>:
    1d5e:	88 1f       	adc	r24, r24
    1d60:	99 1f       	adc	r25, r25
    1d62:	5a 95       	dec	r21
    1d64:	a9 f7       	brne	.-22     	; 0x1d50 <__udivmodhi4_loop>
    1d66:	80 95       	com	r24
    1d68:	90 95       	com	r25
    1d6a:	bc 01       	movw	r22, r24
    1d6c:	cd 01       	movw	r24, r26
    1d6e:	08 95       	ret

00001d70 <eeprom_read_block>:
    1d70:	dc 01       	movw	r26, r24
    1d72:	cb 01       	movw	r24, r22

00001d74 <eeprom_read_blraw>:
    1d74:	fc 01       	movw	r30, r24
    1d76:	f9 99       	sbic	0x1f, 1	; 31
    1d78:	fe cf       	rjmp	.-4      	; 0x1d76 <eeprom_read_blraw+0x2>
    1d7a:	06 c0       	rjmp	.+12     	; 0x1d88 <eeprom_read_blraw+0x14>
    1d7c:	f2 bd       	out	0x22, r31	; 34
    1d7e:	e1 bd       	out	0x21, r30	; 33
    1d80:	f8 9a       	sbi	0x1f, 0	; 31
    1d82:	31 96       	adiw	r30, 0x01	; 1
    1d84:	00 b4       	in	r0, 0x20	; 32
    1d86:	0d 92       	st	X+, r0
    1d88:	41 50       	subi	r20, 0x01	; 1
    1d8a:	50 40       	sbci	r21, 0x00	; 0
    1d8c:	b8 f7       	brcc	.-18     	; 0x1d7c <eeprom_read_blraw+0x8>
    1d8e:	08 95       	ret

00001d90 <eeprom_write_block>:
    1d90:	dc 01       	movw	r26, r24
    1d92:	cb 01       	movw	r24, r22
    1d94:	03 c0       	rjmp	.+6      	; 0x1d9c <eeprom_write_block+0xc>
    1d96:	2d 91       	ld	r18, X+
    1d98:	0e 94 d3 0e 	call	0x1da6	; 0x1da6 <eeprom_write_r18>
    1d9c:	41 50       	subi	r20, 0x01	; 1
    1d9e:	50 40       	sbci	r21, 0x00	; 0
    1da0:	d0 f7       	brcc	.-12     	; 0x1d96 <eeprom_write_block+0x6>
    1da2:	08 95       	ret

00001da4 <eeprom_write_byte>:
    1da4:	26 2f       	mov	r18, r22

00001da6 <eeprom_write_r18>:
    1da6:	f9 99       	sbic	0x1f, 1	; 31
    1da8:	fe cf       	rjmp	.-4      	; 0x1da6 <eeprom_write_r18>
    1daa:	1f ba       	out	0x1f, r1	; 31
    1dac:	92 bd       	out	0x22, r25	; 34
    1dae:	81 bd       	out	0x21, r24	; 33
    1db0:	20 bd       	out	0x20, r18	; 32
    1db2:	0f b6       	in	r0, 0x3f	; 63
    1db4:	f8 94       	cli
    1db6:	fa 9a       	sbi	0x1f, 2	; 31
    1db8:	f9 9a       	sbi	0x1f, 1	; 31
    1dba:	0f be       	out	0x3f, r0	; 63
    1dbc:	01 96       	adiw	r24, 0x01	; 1
    1dbe:	08 95       	ret

00001dc0 <_exit>:
    1dc0:	f8 94       	cli

00001dc2 <__stop_program>:
    1dc2:	ff cf       	rjmp	.-2      	; 0x1dc2 <__stop_program>
